ARM GAS  /var/folders/t4/6192qx0n3zgdnvcwt906k_mw0000gn/T//cc5P7dKr.s 			page 1


   1              		.cpu cortex-m3
   2              		.arch armv7-m
   3              		.fpu softvfp
   4              		.eabi_attribute 20, 1
   5              		.eabi_attribute 21, 1
   6              		.eabi_attribute 23, 3
   7              		.eabi_attribute 24, 1
   8              		.eabi_attribute 25, 1
   9              		.eabi_attribute 26, 1
  10              		.eabi_attribute 30, 1
  11              		.eabi_attribute 34, 1
  12              		.eabi_attribute 18, 4
  13              		.file	"stm32f1xx_hal_tim.c"
  14              		.text
  15              		.section	.text.TIM_OC1_SetConfig,"ax",%progbits
  16              		.align	1
  17              		.syntax unified
  18              		.thumb
  19              		.thumb_func
  21              	TIM_OC1_SetConfig:
  22              		@ args = 0, pretend = 0, frame = 0
  23              		@ frame_needed = 0, uses_anonymous_args = 0
  24              		@ link register save eliminated.
  25 0000 30B4     		push	{r4, r5}
  26 0002 026A     		ldr	r2, [r0, #32]
  27 0004 036A     		ldr	r3, [r0, #32]
  28 0006 23F00103 		bic	r3, r3, #1
  29 000a 0362     		str	r3, [r0, #32]
  30 000c 4468     		ldr	r4, [r0, #4]
  31 000e 8369     		ldr	r3, [r0, #24]
  32 0010 23F07303 		bic	r3, r3, #115
  33 0014 0D68     		ldr	r5, [r1]
  34 0016 1D43     		orrs	r5, r5, r3
  35 0018 22F00202 		bic	r2, r2, #2
  36 001c 8B68     		ldr	r3, [r1, #8]
  37 001e 1343     		orrs	r3, r3, r2
  38 0020 184A     		ldr	r2, .L7
  39 0022 9042     		cmp	r0, r2
  40 0024 0BD0     		beq	.L2
  41 0026 02F5A052 		add	r2, r2, #5120
  42 002a 9042     		cmp	r0, r2
  43 002c 07D0     		beq	.L2
  44 002e 02F58062 		add	r2, r2, #1024
  45 0032 9042     		cmp	r0, r2
  46 0034 03D0     		beq	.L2
  47 0036 02F58062 		add	r2, r2, #1024
  48 003a 9042     		cmp	r0, r2
  49 003c 05D1     		bne	.L3
  50              	.L2:
  51 003e 23F00803 		bic	r3, r3, #8
  52 0042 CA68     		ldr	r2, [r1, #12]
  53 0044 1A43     		orrs	r2, r2, r3
  54 0046 22F00403 		bic	r3, r2, #4
  55              	.L3:
  56 004a 0E4A     		ldr	r2, .L7
  57 004c 9042     		cmp	r0, r2
  58 004e 0BD0     		beq	.L4
ARM GAS  /var/folders/t4/6192qx0n3zgdnvcwt906k_mw0000gn/T//cc5P7dKr.s 			page 2


  59 0050 02F5A052 		add	r2, r2, #5120
  60 0054 9042     		cmp	r0, r2
  61 0056 07D0     		beq	.L4
  62 0058 02F58062 		add	r2, r2, #1024
  63 005c 9042     		cmp	r0, r2
  64 005e 03D0     		beq	.L4
  65 0060 02F58062 		add	r2, r2, #1024
  66 0064 9042     		cmp	r0, r2
  67 0066 05D1     		bne	.L5
  68              	.L4:
  69 0068 24F44074 		bic	r4, r4, #768
  70 006c 4A69     		ldr	r2, [r1, #20]
  71 006e 2243     		orrs	r2, r2, r4
  72 0070 8C69     		ldr	r4, [r1, #24]
  73 0072 1443     		orrs	r4, r4, r2
  74              	.L5:
  75 0074 4460     		str	r4, [r0, #4]
  76 0076 8561     		str	r5, [r0, #24]
  77 0078 4A68     		ldr	r2, [r1, #4]
  78 007a 4263     		str	r2, [r0, #52]
  79 007c 0362     		str	r3, [r0, #32]
  80 007e 30BC     		pop	{r4, r5}
  81 0080 7047     		bx	lr
  82              	.L8:
  83 0082 00BF     		.align	2
  84              	.L7:
  85 0084 002C0140 		.word	1073818624
  87              		.section	.text.TIM_OC3_SetConfig,"ax",%progbits
  88              		.align	1
  89              		.syntax unified
  90              		.thumb
  91              		.thumb_func
  93              	TIM_OC3_SetConfig:
  94              		@ args = 0, pretend = 0, frame = 0
  95              		@ frame_needed = 0, uses_anonymous_args = 0
  96              		@ link register save eliminated.
  97 0000 30B4     		push	{r4, r5}
  98 0002 036A     		ldr	r3, [r0, #32]
  99 0004 026A     		ldr	r2, [r0, #32]
 100 0006 22F48072 		bic	r2, r2, #256
 101 000a 0262     		str	r2, [r0, #32]
 102 000c 4268     		ldr	r2, [r0, #4]
 103 000e C469     		ldr	r4, [r0, #28]
 104 0010 24F0730C 		bic	ip, r4, #115
 105 0014 0C68     		ldr	r4, [r1]
 106 0016 44EA0C05 		orr	r5, r4, ip
 107 001a 23F40073 		bic	r3, r3, #512
 108 001e 8C68     		ldr	r4, [r1, #8]
 109 0020 43EA0423 		orr	r3, r3, r4, lsl #8
 110 0024 124C     		ldr	r4, .L15
 111 0026 A042     		cmp	r0, r4
 112 0028 0BD0     		beq	.L14
 113 002a 124C     		ldr	r4, .L15+4
 114 002c A042     		cmp	r0, r4
 115 002e 0FD0     		beq	.L11
 116 0030 04F58064 		add	r4, r4, #1024
 117 0034 A042     		cmp	r0, r4
ARM GAS  /var/folders/t4/6192qx0n3zgdnvcwt906k_mw0000gn/T//cc5P7dKr.s 			page 3


 118 0036 0BD0     		beq	.L11
 119 0038 04F58064 		add	r4, r4, #1024
 120 003c A042     		cmp	r0, r4
 121 003e 0FD1     		bne	.L12
 122 0040 06E0     		b	.L11
 123              	.L14:
 124 0042 23F40063 		bic	r3, r3, #2048
 125 0046 CC68     		ldr	r4, [r1, #12]
 126 0048 43EA0423 		orr	r3, r3, r4, lsl #8
 127 004c 23F48063 		bic	r3, r3, #1024
 128              	.L11:
 129 0050 22F44052 		bic	r2, r2, #12288
 130 0054 4C69     		ldr	r4, [r1, #20]
 131 0056 42EA0412 		orr	r2, r2, r4, lsl #4
 132 005a 8C69     		ldr	r4, [r1, #24]
 133 005c 42EA0412 		orr	r2, r2, r4, lsl #4
 134              	.L12:
 135 0060 4260     		str	r2, [r0, #4]
 136 0062 C561     		str	r5, [r0, #28]
 137 0064 4A68     		ldr	r2, [r1, #4]
 138 0066 C263     		str	r2, [r0, #60]
 139 0068 0362     		str	r3, [r0, #32]
 140 006a 30BC     		pop	{r4, r5}
 141 006c 7047     		bx	lr
 142              	.L16:
 143 006e 00BF     		.align	2
 144              	.L15:
 145 0070 002C0140 		.word	1073818624
 146 0074 00400140 		.word	1073823744
 148              		.section	.text.TIM_OC4_SetConfig,"ax",%progbits
 149              		.align	1
 150              		.syntax unified
 151              		.thumb
 152              		.thumb_func
 154              	TIM_OC4_SetConfig:
 155              		@ args = 0, pretend = 0, frame = 0
 156              		@ frame_needed = 0, uses_anonymous_args = 0
 157              		@ link register save eliminated.
 158 0000 30B4     		push	{r4, r5}
 159 0002 036A     		ldr	r3, [r0, #32]
 160 0004 026A     		ldr	r2, [r0, #32]
 161 0006 22F48052 		bic	r2, r2, #4096
 162 000a 0262     		str	r2, [r0, #32]
 163 000c 4468     		ldr	r4, [r0, #4]
 164 000e C269     		ldr	r2, [r0, #28]
 165 0010 22F4E642 		bic	r2, r2, #29440
 166 0014 0D68     		ldr	r5, [r1]
 167 0016 42EA0522 		orr	r2, r2, r5, lsl #8
 168 001a 23F40053 		bic	r3, r3, #8192
 169 001e 8D68     		ldr	r5, [r1, #8]
 170 0020 43EA0533 		orr	r3, r3, r5, lsl #12
 171 0024 0D4D     		ldr	r5, .L21
 172 0026 A842     		cmp	r0, r5
 173 0028 0BD0     		beq	.L18
 174 002a 05F5A055 		add	r5, r5, #5120
 175 002e A842     		cmp	r0, r5
 176 0030 07D0     		beq	.L18
ARM GAS  /var/folders/t4/6192qx0n3zgdnvcwt906k_mw0000gn/T//cc5P7dKr.s 			page 4


 177 0032 05F58065 		add	r5, r5, #1024
 178 0036 A842     		cmp	r0, r5
 179 0038 03D0     		beq	.L18
 180 003a 05F58065 		add	r5, r5, #1024
 181 003e A842     		cmp	r0, r5
 182 0040 04D1     		bne	.L19
 183              	.L18:
 184 0042 24F48044 		bic	r4, r4, #16384
 185 0046 4D69     		ldr	r5, [r1, #20]
 186 0048 44EA8514 		orr	r4, r4, r5, lsl #6
 187              	.L19:
 188 004c 4460     		str	r4, [r0, #4]
 189 004e C261     		str	r2, [r0, #28]
 190 0050 4A68     		ldr	r2, [r1, #4]
 191 0052 0264     		str	r2, [r0, #64]
 192 0054 0362     		str	r3, [r0, #32]
 193 0056 30BC     		pop	{r4, r5}
 194 0058 7047     		bx	lr
 195              	.L22:
 196 005a 00BF     		.align	2
 197              	.L21:
 198 005c 002C0140 		.word	1073818624
 200              		.section	.text.TIM_TI1_ConfigInputStage,"ax",%progbits
 201              		.align	1
 202              		.syntax unified
 203              		.thumb
 204              		.thumb_func
 206              	TIM_TI1_ConfigInputStage:
 207              		@ args = 0, pretend = 0, frame = 0
 208              		@ frame_needed = 0, uses_anonymous_args = 0
 209              		@ link register save eliminated.
 210 0000 10B4     		push	{r4}
 211 0002 036A     		ldr	r3, [r0, #32]
 212 0004 046A     		ldr	r4, [r0, #32]
 213 0006 24F00104 		bic	r4, r4, #1
 214 000a 0462     		str	r4, [r0, #32]
 215 000c 8469     		ldr	r4, [r0, #24]
 216 000e 24F0F00C 		bic	ip, r4, #240
 217 0012 4CEA0212 		orr	r2, ip, r2, lsl #4
 218 0016 23F00A03 		bic	r3, r3, #10
 219 001a 0B43     		orrs	r3, r3, r1
 220 001c 8261     		str	r2, [r0, #24]
 221 001e 0362     		str	r3, [r0, #32]
 222 0020 10BC     		pop	{r4}
 223 0022 7047     		bx	lr
 225              		.section	.text.TIM_TI2_SetConfig,"ax",%progbits
 226              		.align	1
 227              		.syntax unified
 228              		.thumb
 229              		.thumb_func
 231              	TIM_TI2_SetConfig:
 232              		@ args = 0, pretend = 0, frame = 0
 233              		@ frame_needed = 0, uses_anonymous_args = 0
 234              		@ link register save eliminated.
 235 0000 30B4     		push	{r4, r5}
 236 0002 056A     		ldr	r5, [r0, #32]
 237 0004 046A     		ldr	r4, [r0, #32]
ARM GAS  /var/folders/t4/6192qx0n3zgdnvcwt906k_mw0000gn/T//cc5P7dKr.s 			page 5


 238 0006 24F01004 		bic	r4, r4, #16
 239 000a 0462     		str	r4, [r0, #32]
 240 000c 8469     		ldr	r4, [r0, #24]
 241 000e 24F4407C 		bic	ip, r4, #768
 242 0012 4CEA022C 		orr	ip, ip, r2, lsl #8
 243 0016 2CF4704C 		bic	ip, ip, #61440
 244 001a 1B03     		lsls	r3, r3, #12
 245 001c 9BB2     		uxth	r3, r3
 246 001e 43EA0C03 		orr	r3, r3, ip
 247 0022 25F0A005 		bic	r5, r5, #160
 248 0026 0901     		lsls	r1, r1, #4
 249 0028 01F0A001 		and	r1, r1, #160
 250 002c 2943     		orrs	r1, r1, r5
 251 002e 8361     		str	r3, [r0, #24]
 252 0030 0162     		str	r1, [r0, #32]
 253 0032 30BC     		pop	{r4, r5}
 254 0034 7047     		bx	lr
 256              		.section	.text.TIM_TI2_ConfigInputStage,"ax",%progbits
 257              		.align	1
 258              		.syntax unified
 259              		.thumb
 260              		.thumb_func
 262              	TIM_TI2_ConfigInputStage:
 263              		@ args = 0, pretend = 0, frame = 0
 264              		@ frame_needed = 0, uses_anonymous_args = 0
 265              		@ link register save eliminated.
 266 0000 10B4     		push	{r4}
 267 0002 036A     		ldr	r3, [r0, #32]
 268 0004 046A     		ldr	r4, [r0, #32]
 269 0006 24F01004 		bic	r4, r4, #16
 270 000a 0462     		str	r4, [r0, #32]
 271 000c 8469     		ldr	r4, [r0, #24]
 272 000e 24F4704C 		bic	ip, r4, #61440
 273 0012 4CEA0232 		orr	r2, ip, r2, lsl #12
 274 0016 23F0A003 		bic	r3, r3, #160
 275 001a 43EA0113 		orr	r3, r3, r1, lsl #4
 276 001e 8261     		str	r2, [r0, #24]
 277 0020 0362     		str	r3, [r0, #32]
 278 0022 10BC     		pop	{r4}
 279 0024 7047     		bx	lr
 281              		.section	.text.TIM_TI3_SetConfig,"ax",%progbits
 282              		.align	1
 283              		.syntax unified
 284              		.thumb
 285              		.thumb_func
 287              	TIM_TI3_SetConfig:
 288              		@ args = 0, pretend = 0, frame = 0
 289              		@ frame_needed = 0, uses_anonymous_args = 0
 290              		@ link register save eliminated.
 291 0000 30B4     		push	{r4, r5}
 292 0002 056A     		ldr	r5, [r0, #32]
 293 0004 046A     		ldr	r4, [r0, #32]
 294 0006 24F48074 		bic	r4, r4, #256
 295 000a 0462     		str	r4, [r0, #32]
 296 000c C469     		ldr	r4, [r0, #28]
 297 000e 24F0030C 		bic	ip, r4, #3
 298 0012 4CEA020C 		orr	ip, ip, r2
ARM GAS  /var/folders/t4/6192qx0n3zgdnvcwt906k_mw0000gn/T//cc5P7dKr.s 			page 6


 299 0016 2CF0F00C 		bic	ip, ip, #240
 300 001a 1B01     		lsls	r3, r3, #4
 301 001c DBB2     		uxtb	r3, r3
 302 001e 43EA0C03 		orr	r3, r3, ip
 303 0022 25F40075 		bic	r5, r5, #512
 304 0026 0902     		lsls	r1, r1, #8
 305 0028 01F40071 		and	r1, r1, #512
 306 002c 2943     		orrs	r1, r1, r5
 307 002e C361     		str	r3, [r0, #28]
 308 0030 0162     		str	r1, [r0, #32]
 309 0032 30BC     		pop	{r4, r5}
 310 0034 7047     		bx	lr
 312              		.section	.text.TIM_TI4_SetConfig,"ax",%progbits
 313              		.align	1
 314              		.syntax unified
 315              		.thumb
 316              		.thumb_func
 318              	TIM_TI4_SetConfig:
 319              		@ args = 0, pretend = 0, frame = 0
 320              		@ frame_needed = 0, uses_anonymous_args = 0
 321              		@ link register save eliminated.
 322 0000 30B4     		push	{r4, r5}
 323 0002 056A     		ldr	r5, [r0, #32]
 324 0004 046A     		ldr	r4, [r0, #32]
 325 0006 24F48054 		bic	r4, r4, #4096
 326 000a 0462     		str	r4, [r0, #32]
 327 000c C469     		ldr	r4, [r0, #28]
 328 000e 24F4407C 		bic	ip, r4, #768
 329 0012 4CEA022C 		orr	ip, ip, r2, lsl #8
 330 0016 2CF4704C 		bic	ip, ip, #61440
 331 001a 1B03     		lsls	r3, r3, #12
 332 001c 9BB2     		uxth	r3, r3
 333 001e 43EA0C03 		orr	r3, r3, ip
 334 0022 25F40055 		bic	r5, r5, #8192
 335 0026 0903     		lsls	r1, r1, #12
 336 0028 01F40051 		and	r1, r1, #8192
 337 002c 2943     		orrs	r1, r1, r5
 338 002e C361     		str	r3, [r0, #28]
 339 0030 0162     		str	r1, [r0, #32]
 340 0032 30BC     		pop	{r4, r5}
 341 0034 7047     		bx	lr
 343              		.section	.text.TIM_ITRx_SetConfig,"ax",%progbits
 344              		.align	1
 345              		.syntax unified
 346              		.thumb
 347              		.thumb_func
 349              	TIM_ITRx_SetConfig:
 350              		@ args = 0, pretend = 0, frame = 0
 351              		@ frame_needed = 0, uses_anonymous_args = 0
 352              		@ link register save eliminated.
 353 0000 8368     		ldr	r3, [r0, #8]
 354 0002 23F07003 		bic	r3, r3, #112
 355 0006 0B43     		orrs	r3, r3, r1
 356 0008 43F00703 		orr	r3, r3, #7
 357 000c 8360     		str	r3, [r0, #8]
 358 000e 7047     		bx	lr
 360              		.section	.text.HAL_TIM_Base_MspInit,"ax",%progbits
ARM GAS  /var/folders/t4/6192qx0n3zgdnvcwt906k_mw0000gn/T//cc5P7dKr.s 			page 7


 361              		.align	1
 362              		.weak	HAL_TIM_Base_MspInit
 363              		.syntax unified
 364              		.thumb
 365              		.thumb_func
 367              	HAL_TIM_Base_MspInit:
 368              		@ args = 0, pretend = 0, frame = 0
 369              		@ frame_needed = 0, uses_anonymous_args = 0
 370              		@ link register save eliminated.
 371 0000 7047     		bx	lr
 373              		.section	.text.HAL_TIM_Base_MspDeInit,"ax",%progbits
 374              		.align	1
 375              		.weak	HAL_TIM_Base_MspDeInit
 376              		.syntax unified
 377              		.thumb
 378              		.thumb_func
 380              	HAL_TIM_Base_MspDeInit:
 381              		@ args = 0, pretend = 0, frame = 0
 382              		@ frame_needed = 0, uses_anonymous_args = 0
 383              		@ link register save eliminated.
 384 0000 7047     		bx	lr
 386              		.section	.text.HAL_TIM_Base_DeInit,"ax",%progbits
 387              		.align	1
 388              		.global	HAL_TIM_Base_DeInit
 389              		.syntax unified
 390              		.thumb
 391              		.thumb_func
 393              	HAL_TIM_Base_DeInit:
 394              		@ args = 0, pretend = 0, frame = 0
 395              		@ frame_needed = 0, uses_anonymous_args = 0
 396 0000 10B5     		push	{r4, lr}
 397 0002 0446     		mov	r4, r0
 398 0004 0223     		movs	r3, #2
 399 0006 80F83D30 		strb	r3, [r0, #61]
 400 000a 0368     		ldr	r3, [r0]
 401 000c 196A     		ldr	r1, [r3, #32]
 402 000e 41F21112 		movw	r2, #4369
 403 0012 1142     		tst	r1, r2
 404 0014 08D1     		bne	.L37
 405 0016 196A     		ldr	r1, [r3, #32]
 406 0018 40F24442 		movw	r2, #1092
 407 001c 1142     		tst	r1, r2
 408 001e 03D1     		bne	.L37
 409 0020 1A68     		ldr	r2, [r3]
 410 0022 22F00102 		bic	r2, r2, #1
 411 0026 1A60     		str	r2, [r3]
 412              	.L37:
 413 0028 2046     		mov	r0, r4
 414 002a FFF7FEFF 		bl	HAL_TIM_Base_MspDeInit
 415 002e 0020     		movs	r0, #0
 416 0030 84F84600 		strb	r0, [r4, #70]
 417 0034 84F83E00 		strb	r0, [r4, #62]
 418 0038 84F83F00 		strb	r0, [r4, #63]
 419 003c 84F84000 		strb	r0, [r4, #64]
 420 0040 84F84100 		strb	r0, [r4, #65]
 421 0044 84F84200 		strb	r0, [r4, #66]
 422 0048 84F84300 		strb	r0, [r4, #67]
ARM GAS  /var/folders/t4/6192qx0n3zgdnvcwt906k_mw0000gn/T//cc5P7dKr.s 			page 8


 423 004c 84F84400 		strb	r0, [r4, #68]
 424 0050 84F84500 		strb	r0, [r4, #69]
 425 0054 84F83D00 		strb	r0, [r4, #61]
 426 0058 84F83C00 		strb	r0, [r4, #60]
 427 005c 10BD     		pop	{r4, pc}
 429              		.section	.text.HAL_TIM_Base_Start,"ax",%progbits
 430              		.align	1
 431              		.global	HAL_TIM_Base_Start
 432              		.syntax unified
 433              		.thumb
 434              		.thumb_func
 436              	HAL_TIM_Base_Start:
 437              		@ args = 0, pretend = 0, frame = 0
 438              		@ frame_needed = 0, uses_anonymous_args = 0
 439              		@ link register save eliminated.
 440 0000 90F83D30 		ldrb	r3, [r0, #61]	@ zero_extendqisi2
 441 0004 DBB2     		uxtb	r3, r3
 442 0006 012B     		cmp	r3, #1
 443 0008 26D1     		bne	.L43
 444 000a 0223     		movs	r3, #2
 445 000c 80F83D30 		strb	r3, [r0, #61]
 446 0010 0368     		ldr	r3, [r0]
 447 0012 134A     		ldr	r2, .L45
 448 0014 9342     		cmp	r3, r2
 449 0016 14D0     		beq	.L41
 450 0018 B3F1804F 		cmp	r3, #1073741824
 451 001c 11D0     		beq	.L41
 452 001e A2F59432 		sub	r2, r2, #75776
 453 0022 9342     		cmp	r3, r2
 454 0024 0DD0     		beq	.L41
 455 0026 02F58062 		add	r2, r2, #1024
 456 002a 9342     		cmp	r3, r2
 457 002c 09D0     		beq	.L41
 458 002e 02F59C32 		add	r2, r2, #79872
 459 0032 9342     		cmp	r3, r2
 460 0034 05D0     		beq	.L41
 461 0036 1A68     		ldr	r2, [r3]
 462 0038 42F00102 		orr	r2, r2, #1
 463 003c 1A60     		str	r2, [r3]
 464 003e 0020     		movs	r0, #0
 465 0040 7047     		bx	lr
 466              	.L41:
 467 0042 9A68     		ldr	r2, [r3, #8]
 468 0044 02F00702 		and	r2, r2, #7
 469 0048 062A     		cmp	r2, #6
 470 004a 07D0     		beq	.L44
 471 004c 1A68     		ldr	r2, [r3]
 472 004e 42F00102 		orr	r2, r2, #1
 473 0052 1A60     		str	r2, [r3]
 474 0054 0020     		movs	r0, #0
 475 0056 7047     		bx	lr
 476              	.L43:
 477 0058 0120     		movs	r0, #1
 478 005a 7047     		bx	lr
 479              	.L44:
 480 005c 0020     		movs	r0, #0
 481 005e 7047     		bx	lr
ARM GAS  /var/folders/t4/6192qx0n3zgdnvcwt906k_mw0000gn/T//cc5P7dKr.s 			page 9


 482              	.L46:
 483              		.align	2
 484              	.L45:
 485 0060 002C0140 		.word	1073818624
 487              		.section	.text.HAL_TIM_Base_Stop,"ax",%progbits
 488              		.align	1
 489              		.global	HAL_TIM_Base_Stop
 490              		.syntax unified
 491              		.thumb
 492              		.thumb_func
 494              	HAL_TIM_Base_Stop:
 495              		@ args = 0, pretend = 0, frame = 0
 496              		@ frame_needed = 0, uses_anonymous_args = 0
 497              		@ link register save eliminated.
 498 0000 0368     		ldr	r3, [r0]
 499 0002 196A     		ldr	r1, [r3, #32]
 500 0004 41F21112 		movw	r2, #4369
 501 0008 1142     		tst	r1, r2
 502 000a 08D1     		bne	.L48
 503 000c 196A     		ldr	r1, [r3, #32]
 504 000e 40F24442 		movw	r2, #1092
 505 0012 1142     		tst	r1, r2
 506 0014 03D1     		bne	.L48
 507 0016 1A68     		ldr	r2, [r3]
 508 0018 22F00102 		bic	r2, r2, #1
 509 001c 1A60     		str	r2, [r3]
 510              	.L48:
 511 001e 0123     		movs	r3, #1
 512 0020 80F83D30 		strb	r3, [r0, #61]
 513 0024 0020     		movs	r0, #0
 514 0026 7047     		bx	lr
 516              		.section	.text.HAL_TIM_Base_Start_IT,"ax",%progbits
 517              		.align	1
 518              		.global	HAL_TIM_Base_Start_IT
 519              		.syntax unified
 520              		.thumb
 521              		.thumb_func
 523              	HAL_TIM_Base_Start_IT:
 524              		@ args = 0, pretend = 0, frame = 0
 525              		@ frame_needed = 0, uses_anonymous_args = 0
 526              		@ link register save eliminated.
 527 0000 90F83D30 		ldrb	r3, [r0, #61]	@ zero_extendqisi2
 528 0004 DBB2     		uxtb	r3, r3
 529 0006 012B     		cmp	r3, #1
 530 0008 2BD1     		bne	.L53
 531 000a 0223     		movs	r3, #2
 532 000c 80F83D30 		strb	r3, [r0, #61]
 533 0010 0268     		ldr	r2, [r0]
 534 0012 D368     		ldr	r3, [r2, #12]
 535 0014 43F00103 		orr	r3, r3, #1
 536 0018 D360     		str	r3, [r2, #12]
 537 001a 0368     		ldr	r3, [r0]
 538 001c 134A     		ldr	r2, .L55
 539 001e 9342     		cmp	r3, r2
 540 0020 14D0     		beq	.L51
 541 0022 B3F1804F 		cmp	r3, #1073741824
 542 0026 11D0     		beq	.L51
ARM GAS  /var/folders/t4/6192qx0n3zgdnvcwt906k_mw0000gn/T//cc5P7dKr.s 			page 10


 543 0028 A2F59432 		sub	r2, r2, #75776
 544 002c 9342     		cmp	r3, r2
 545 002e 0DD0     		beq	.L51
 546 0030 02F58062 		add	r2, r2, #1024
 547 0034 9342     		cmp	r3, r2
 548 0036 09D0     		beq	.L51
 549 0038 02F59C32 		add	r2, r2, #79872
 550 003c 9342     		cmp	r3, r2
 551 003e 05D0     		beq	.L51
 552 0040 1A68     		ldr	r2, [r3]
 553 0042 42F00102 		orr	r2, r2, #1
 554 0046 1A60     		str	r2, [r3]
 555 0048 0020     		movs	r0, #0
 556 004a 7047     		bx	lr
 557              	.L51:
 558 004c 9A68     		ldr	r2, [r3, #8]
 559 004e 02F00702 		and	r2, r2, #7
 560 0052 062A     		cmp	r2, #6
 561 0054 07D0     		beq	.L54
 562 0056 1A68     		ldr	r2, [r3]
 563 0058 42F00102 		orr	r2, r2, #1
 564 005c 1A60     		str	r2, [r3]
 565 005e 0020     		movs	r0, #0
 566 0060 7047     		bx	lr
 567              	.L53:
 568 0062 0120     		movs	r0, #1
 569 0064 7047     		bx	lr
 570              	.L54:
 571 0066 0020     		movs	r0, #0
 572 0068 7047     		bx	lr
 573              	.L56:
 574 006a 00BF     		.align	2
 575              	.L55:
 576 006c 002C0140 		.word	1073818624
 578              		.section	.text.HAL_TIM_Base_Stop_IT,"ax",%progbits
 579              		.align	1
 580              		.global	HAL_TIM_Base_Stop_IT
 581              		.syntax unified
 582              		.thumb
 583              		.thumb_func
 585              	HAL_TIM_Base_Stop_IT:
 586              		@ args = 0, pretend = 0, frame = 0
 587              		@ frame_needed = 0, uses_anonymous_args = 0
 588              		@ link register save eliminated.
 589 0000 0268     		ldr	r2, [r0]
 590 0002 D368     		ldr	r3, [r2, #12]
 591 0004 23F00103 		bic	r3, r3, #1
 592 0008 D360     		str	r3, [r2, #12]
 593 000a 0368     		ldr	r3, [r0]
 594 000c 196A     		ldr	r1, [r3, #32]
 595 000e 41F21112 		movw	r2, #4369
 596 0012 1142     		tst	r1, r2
 597 0014 08D1     		bne	.L58
 598 0016 196A     		ldr	r1, [r3, #32]
 599 0018 40F24442 		movw	r2, #1092
 600 001c 1142     		tst	r1, r2
 601 001e 03D1     		bne	.L58
ARM GAS  /var/folders/t4/6192qx0n3zgdnvcwt906k_mw0000gn/T//cc5P7dKr.s 			page 11


 602 0020 1A68     		ldr	r2, [r3]
 603 0022 22F00102 		bic	r2, r2, #1
 604 0026 1A60     		str	r2, [r3]
 605              	.L58:
 606 0028 0123     		movs	r3, #1
 607 002a 80F83D30 		strb	r3, [r0, #61]
 608 002e 0020     		movs	r0, #0
 609 0030 7047     		bx	lr
 611              		.section	.text.HAL_TIM_Base_Start_DMA,"ax",%progbits
 612              		.align	1
 613              		.global	HAL_TIM_Base_Start_DMA
 614              		.syntax unified
 615              		.thumb
 616              		.thumb_func
 618              	HAL_TIM_Base_Start_DMA:
 619              		@ args = 0, pretend = 0, frame = 0
 620              		@ frame_needed = 0, uses_anonymous_args = 0
 621 0000 38B5     		push	{r3, r4, r5, lr}
 622 0002 90F83D40 		ldrb	r4, [r0, #61]	@ zero_extendqisi2
 623 0006 E4B2     		uxtb	r4, r4
 624 0008 022C     		cmp	r4, #2
 625 000a 48D0     		beq	.L60
 626 000c 0546     		mov	r5, r0
 627 000e 90F83D40 		ldrb	r4, [r0, #61]	@ zero_extendqisi2
 628 0012 E4B2     		uxtb	r4, r4
 629 0014 012C     		cmp	r4, #1
 630 0016 41D1     		bne	.L63
 631 0018 0029     		cmp	r1, #0
 632 001a 40D0     		beq	.L60
 633 001c 002A     		cmp	r2, #0
 634 001e 3ED0     		beq	.L60
 635 0020 0223     		movs	r3, #2
 636 0022 80F83D30 		strb	r3, [r0, #61]
 637 0026 036A     		ldr	r3, [r0, #32]
 638 0028 1F48     		ldr	r0, .L66
 639 002a 9862     		str	r0, [r3, #40]
 640 002c 2B6A     		ldr	r3, [r5, #32]
 641 002e 1F48     		ldr	r0, .L66+4
 642 0030 D862     		str	r0, [r3, #44]
 643 0032 2B6A     		ldr	r3, [r5, #32]
 644 0034 1E48     		ldr	r0, .L66+8
 645 0036 1863     		str	r0, [r3, #48]
 646 0038 2868     		ldr	r0, [r5]
 647 003a 1346     		mov	r3, r2
 648 003c 00F12C02 		add	r2, r0, #44
 649 0040 286A     		ldr	r0, [r5, #32]
 650 0042 FFF7FEFF 		bl	HAL_DMA_Start_IT
 651 0046 0146     		mov	r1, r0
 652 0048 48BB     		cbnz	r0, .L60
 653 004a 2A68     		ldr	r2, [r5]
 654 004c D368     		ldr	r3, [r2, #12]
 655 004e 43F48073 		orr	r3, r3, #256
 656 0052 D360     		str	r3, [r2, #12]
 657 0054 2B68     		ldr	r3, [r5]
 658 0056 174A     		ldr	r2, .L66+12
 659 0058 9342     		cmp	r3, r2
 660 005a 14D0     		beq	.L61
ARM GAS  /var/folders/t4/6192qx0n3zgdnvcwt906k_mw0000gn/T//cc5P7dKr.s 			page 12


 661 005c B3F1804F 		cmp	r3, #1073741824
 662 0060 11D0     		beq	.L61
 663 0062 A2F59432 		sub	r2, r2, #75776
 664 0066 9342     		cmp	r3, r2
 665 0068 0DD0     		beq	.L61
 666 006a 02F58062 		add	r2, r2, #1024
 667 006e 9342     		cmp	r3, r2
 668 0070 09D0     		beq	.L61
 669 0072 02F59C32 		add	r2, r2, #79872
 670 0076 9342     		cmp	r3, r2
 671 0078 05D0     		beq	.L61
 672 007a 1A68     		ldr	r2, [r3]
 673 007c 42F00102 		orr	r2, r2, #1
 674 0080 1A60     		str	r2, [r3]
 675 0082 0446     		mov	r4, r0
 676 0084 0BE0     		b	.L60
 677              	.L61:
 678 0086 9A68     		ldr	r2, [r3, #8]
 679 0088 02F00702 		and	r2, r2, #7
 680 008c 062A     		cmp	r2, #6
 681 008e 08D0     		beq	.L64
 682 0090 1A68     		ldr	r2, [r3]
 683 0092 42F00102 		orr	r2, r2, #1
 684 0096 1A60     		str	r2, [r3]
 685 0098 0C46     		mov	r4, r1
 686 009a 00E0     		b	.L60
 687              	.L63:
 688 009c 0124     		movs	r4, #1
 689              	.L60:
 690 009e 2046     		mov	r0, r4
 691 00a0 38BD     		pop	{r3, r4, r5, pc}
 692              	.L64:
 693 00a2 0C46     		mov	r4, r1
 694 00a4 FBE7     		b	.L60
 695              	.L67:
 696 00a6 00BF     		.align	2
 697              	.L66:
 698 00a8 00000000 		.word	TIM_DMAPeriodElapsedCplt
 699 00ac 00000000 		.word	TIM_DMAPeriodElapsedHalfCplt
 700 00b0 00000000 		.word	TIM_DMAError
 701 00b4 002C0140 		.word	1073818624
 703              		.section	.text.HAL_TIM_Base_Stop_DMA,"ax",%progbits
 704              		.align	1
 705              		.global	HAL_TIM_Base_Stop_DMA
 706              		.syntax unified
 707              		.thumb
 708              		.thumb_func
 710              	HAL_TIM_Base_Stop_DMA:
 711              		@ args = 0, pretend = 0, frame = 0
 712              		@ frame_needed = 0, uses_anonymous_args = 0
 713 0000 10B5     		push	{r4, lr}
 714 0002 0446     		mov	r4, r0
 715 0004 0268     		ldr	r2, [r0]
 716 0006 D368     		ldr	r3, [r2, #12]
 717 0008 23F48073 		bic	r3, r3, #256
 718 000c D360     		str	r3, [r2, #12]
 719 000e 006A     		ldr	r0, [r0, #32]
ARM GAS  /var/folders/t4/6192qx0n3zgdnvcwt906k_mw0000gn/T//cc5P7dKr.s 			page 13


 720 0010 FFF7FEFF 		bl	HAL_DMA_Abort_IT
 721 0014 2368     		ldr	r3, [r4]
 722 0016 196A     		ldr	r1, [r3, #32]
 723 0018 41F21112 		movw	r2, #4369
 724 001c 1142     		tst	r1, r2
 725 001e 08D1     		bne	.L69
 726 0020 196A     		ldr	r1, [r3, #32]
 727 0022 40F24442 		movw	r2, #1092
 728 0026 1142     		tst	r1, r2
 729 0028 03D1     		bne	.L69
 730 002a 1A68     		ldr	r2, [r3]
 731 002c 22F00102 		bic	r2, r2, #1
 732 0030 1A60     		str	r2, [r3]
 733              	.L69:
 734 0032 0123     		movs	r3, #1
 735 0034 84F83D30 		strb	r3, [r4, #61]
 736 0038 0020     		movs	r0, #0
 737 003a 10BD     		pop	{r4, pc}
 739              		.section	.text.HAL_TIM_OC_MspInit,"ax",%progbits
 740              		.align	1
 741              		.weak	HAL_TIM_OC_MspInit
 742              		.syntax unified
 743              		.thumb
 744              		.thumb_func
 746              	HAL_TIM_OC_MspInit:
 747              		@ args = 0, pretend = 0, frame = 0
 748              		@ frame_needed = 0, uses_anonymous_args = 0
 749              		@ link register save eliminated.
 750 0000 7047     		bx	lr
 752              		.section	.text.HAL_TIM_OC_MspDeInit,"ax",%progbits
 753              		.align	1
 754              		.weak	HAL_TIM_OC_MspDeInit
 755              		.syntax unified
 756              		.thumb
 757              		.thumb_func
 759              	HAL_TIM_OC_MspDeInit:
 760              		@ args = 0, pretend = 0, frame = 0
 761              		@ frame_needed = 0, uses_anonymous_args = 0
 762              		@ link register save eliminated.
 763 0000 7047     		bx	lr
 765              		.section	.text.HAL_TIM_OC_DeInit,"ax",%progbits
 766              		.align	1
 767              		.global	HAL_TIM_OC_DeInit
 768              		.syntax unified
 769              		.thumb
 770              		.thumb_func
 772              	HAL_TIM_OC_DeInit:
 773              		@ args = 0, pretend = 0, frame = 0
 774              		@ frame_needed = 0, uses_anonymous_args = 0
 775 0000 10B5     		push	{r4, lr}
 776 0002 0446     		mov	r4, r0
 777 0004 0223     		movs	r3, #2
 778 0006 80F83D30 		strb	r3, [r0, #61]
 779 000a 0368     		ldr	r3, [r0]
 780 000c 196A     		ldr	r1, [r3, #32]
 781 000e 41F21112 		movw	r2, #4369
 782 0012 1142     		tst	r1, r2
ARM GAS  /var/folders/t4/6192qx0n3zgdnvcwt906k_mw0000gn/T//cc5P7dKr.s 			page 14


 783 0014 08D1     		bne	.L74
 784 0016 196A     		ldr	r1, [r3, #32]
 785 0018 40F24442 		movw	r2, #1092
 786 001c 1142     		tst	r1, r2
 787 001e 03D1     		bne	.L74
 788 0020 1A68     		ldr	r2, [r3]
 789 0022 22F00102 		bic	r2, r2, #1
 790 0026 1A60     		str	r2, [r3]
 791              	.L74:
 792 0028 2046     		mov	r0, r4
 793 002a FFF7FEFF 		bl	HAL_TIM_OC_MspDeInit
 794 002e 0020     		movs	r0, #0
 795 0030 84F84600 		strb	r0, [r4, #70]
 796 0034 84F83E00 		strb	r0, [r4, #62]
 797 0038 84F83F00 		strb	r0, [r4, #63]
 798 003c 84F84000 		strb	r0, [r4, #64]
 799 0040 84F84100 		strb	r0, [r4, #65]
 800 0044 84F84200 		strb	r0, [r4, #66]
 801 0048 84F84300 		strb	r0, [r4, #67]
 802 004c 84F84400 		strb	r0, [r4, #68]
 803 0050 84F84500 		strb	r0, [r4, #69]
 804 0054 84F83D00 		strb	r0, [r4, #61]
 805 0058 84F83C00 		strb	r0, [r4, #60]
 806 005c 10BD     		pop	{r4, pc}
 808              		.section	.text.HAL_TIM_PWM_MspInit,"ax",%progbits
 809              		.align	1
 810              		.weak	HAL_TIM_PWM_MspInit
 811              		.syntax unified
 812              		.thumb
 813              		.thumb_func
 815              	HAL_TIM_PWM_MspInit:
 816              		@ args = 0, pretend = 0, frame = 0
 817              		@ frame_needed = 0, uses_anonymous_args = 0
 818              		@ link register save eliminated.
 819 0000 7047     		bx	lr
 821              		.section	.text.HAL_TIM_PWM_MspDeInit,"ax",%progbits
 822              		.align	1
 823              		.weak	HAL_TIM_PWM_MspDeInit
 824              		.syntax unified
 825              		.thumb
 826              		.thumb_func
 828              	HAL_TIM_PWM_MspDeInit:
 829              		@ args = 0, pretend = 0, frame = 0
 830              		@ frame_needed = 0, uses_anonymous_args = 0
 831              		@ link register save eliminated.
 832 0000 7047     		bx	lr
 834              		.section	.text.HAL_TIM_PWM_DeInit,"ax",%progbits
 835              		.align	1
 836              		.global	HAL_TIM_PWM_DeInit
 837              		.syntax unified
 838              		.thumb
 839              		.thumb_func
 841              	HAL_TIM_PWM_DeInit:
 842              		@ args = 0, pretend = 0, frame = 0
 843              		@ frame_needed = 0, uses_anonymous_args = 0
 844 0000 10B5     		push	{r4, lr}
 845 0002 0446     		mov	r4, r0
ARM GAS  /var/folders/t4/6192qx0n3zgdnvcwt906k_mw0000gn/T//cc5P7dKr.s 			page 15


 846 0004 0223     		movs	r3, #2
 847 0006 80F83D30 		strb	r3, [r0, #61]
 848 000a 0368     		ldr	r3, [r0]
 849 000c 196A     		ldr	r1, [r3, #32]
 850 000e 41F21112 		movw	r2, #4369
 851 0012 1142     		tst	r1, r2
 852 0014 08D1     		bne	.L79
 853 0016 196A     		ldr	r1, [r3, #32]
 854 0018 40F24442 		movw	r2, #1092
 855 001c 1142     		tst	r1, r2
 856 001e 03D1     		bne	.L79
 857 0020 1A68     		ldr	r2, [r3]
 858 0022 22F00102 		bic	r2, r2, #1
 859 0026 1A60     		str	r2, [r3]
 860              	.L79:
 861 0028 2046     		mov	r0, r4
 862 002a FFF7FEFF 		bl	HAL_TIM_PWM_MspDeInit
 863 002e 0020     		movs	r0, #0
 864 0030 84F84600 		strb	r0, [r4, #70]
 865 0034 84F83E00 		strb	r0, [r4, #62]
 866 0038 84F83F00 		strb	r0, [r4, #63]
 867 003c 84F84000 		strb	r0, [r4, #64]
 868 0040 84F84100 		strb	r0, [r4, #65]
 869 0044 84F84200 		strb	r0, [r4, #66]
 870 0048 84F84300 		strb	r0, [r4, #67]
 871 004c 84F84400 		strb	r0, [r4, #68]
 872 0050 84F84500 		strb	r0, [r4, #69]
 873 0054 84F83D00 		strb	r0, [r4, #61]
 874 0058 84F83C00 		strb	r0, [r4, #60]
 875 005c 10BD     		pop	{r4, pc}
 877              		.section	.text.HAL_TIM_IC_MspInit,"ax",%progbits
 878              		.align	1
 879              		.weak	HAL_TIM_IC_MspInit
 880              		.syntax unified
 881              		.thumb
 882              		.thumb_func
 884              	HAL_TIM_IC_MspInit:
 885              		@ args = 0, pretend = 0, frame = 0
 886              		@ frame_needed = 0, uses_anonymous_args = 0
 887              		@ link register save eliminated.
 888 0000 7047     		bx	lr
 890              		.section	.text.HAL_TIM_IC_MspDeInit,"ax",%progbits
 891              		.align	1
 892              		.weak	HAL_TIM_IC_MspDeInit
 893              		.syntax unified
 894              		.thumb
 895              		.thumb_func
 897              	HAL_TIM_IC_MspDeInit:
 898              		@ args = 0, pretend = 0, frame = 0
 899              		@ frame_needed = 0, uses_anonymous_args = 0
 900              		@ link register save eliminated.
 901 0000 7047     		bx	lr
 903              		.section	.text.HAL_TIM_IC_DeInit,"ax",%progbits
 904              		.align	1
 905              		.global	HAL_TIM_IC_DeInit
 906              		.syntax unified
 907              		.thumb
ARM GAS  /var/folders/t4/6192qx0n3zgdnvcwt906k_mw0000gn/T//cc5P7dKr.s 			page 16


 908              		.thumb_func
 910              	HAL_TIM_IC_DeInit:
 911              		@ args = 0, pretend = 0, frame = 0
 912              		@ frame_needed = 0, uses_anonymous_args = 0
 913 0000 10B5     		push	{r4, lr}
 914 0002 0446     		mov	r4, r0
 915 0004 0223     		movs	r3, #2
 916 0006 80F83D30 		strb	r3, [r0, #61]
 917 000a 0368     		ldr	r3, [r0]
 918 000c 196A     		ldr	r1, [r3, #32]
 919 000e 41F21112 		movw	r2, #4369
 920 0012 1142     		tst	r1, r2
 921 0014 08D1     		bne	.L84
 922 0016 196A     		ldr	r1, [r3, #32]
 923 0018 40F24442 		movw	r2, #1092
 924 001c 1142     		tst	r1, r2
 925 001e 03D1     		bne	.L84
 926 0020 1A68     		ldr	r2, [r3]
 927 0022 22F00102 		bic	r2, r2, #1
 928 0026 1A60     		str	r2, [r3]
 929              	.L84:
 930 0028 2046     		mov	r0, r4
 931 002a FFF7FEFF 		bl	HAL_TIM_IC_MspDeInit
 932 002e 0020     		movs	r0, #0
 933 0030 84F84600 		strb	r0, [r4, #70]
 934 0034 84F83E00 		strb	r0, [r4, #62]
 935 0038 84F83F00 		strb	r0, [r4, #63]
 936 003c 84F84000 		strb	r0, [r4, #64]
 937 0040 84F84100 		strb	r0, [r4, #65]
 938 0044 84F84200 		strb	r0, [r4, #66]
 939 0048 84F84300 		strb	r0, [r4, #67]
 940 004c 84F84400 		strb	r0, [r4, #68]
 941 0050 84F84500 		strb	r0, [r4, #69]
 942 0054 84F83D00 		strb	r0, [r4, #61]
 943 0058 84F83C00 		strb	r0, [r4, #60]
 944 005c 10BD     		pop	{r4, pc}
 946              		.section	.text.HAL_TIM_OnePulse_MspInit,"ax",%progbits
 947              		.align	1
 948              		.weak	HAL_TIM_OnePulse_MspInit
 949              		.syntax unified
 950              		.thumb
 951              		.thumb_func
 953              	HAL_TIM_OnePulse_MspInit:
 954              		@ args = 0, pretend = 0, frame = 0
 955              		@ frame_needed = 0, uses_anonymous_args = 0
 956              		@ link register save eliminated.
 957 0000 7047     		bx	lr
 959              		.section	.text.HAL_TIM_OnePulse_MspDeInit,"ax",%progbits
 960              		.align	1
 961              		.weak	HAL_TIM_OnePulse_MspDeInit
 962              		.syntax unified
 963              		.thumb
 964              		.thumb_func
 966              	HAL_TIM_OnePulse_MspDeInit:
 967              		@ args = 0, pretend = 0, frame = 0
 968              		@ frame_needed = 0, uses_anonymous_args = 0
 969              		@ link register save eliminated.
ARM GAS  /var/folders/t4/6192qx0n3zgdnvcwt906k_mw0000gn/T//cc5P7dKr.s 			page 17


 970 0000 7047     		bx	lr
 972              		.section	.text.HAL_TIM_OnePulse_DeInit,"ax",%progbits
 973              		.align	1
 974              		.global	HAL_TIM_OnePulse_DeInit
 975              		.syntax unified
 976              		.thumb
 977              		.thumb_func
 979              	HAL_TIM_OnePulse_DeInit:
 980              		@ args = 0, pretend = 0, frame = 0
 981              		@ frame_needed = 0, uses_anonymous_args = 0
 982 0000 10B5     		push	{r4, lr}
 983 0002 0446     		mov	r4, r0
 984 0004 0223     		movs	r3, #2
 985 0006 80F83D30 		strb	r3, [r0, #61]
 986 000a 0368     		ldr	r3, [r0]
 987 000c 196A     		ldr	r1, [r3, #32]
 988 000e 41F21112 		movw	r2, #4369
 989 0012 1142     		tst	r1, r2
 990 0014 08D1     		bne	.L89
 991 0016 196A     		ldr	r1, [r3, #32]
 992 0018 40F24442 		movw	r2, #1092
 993 001c 1142     		tst	r1, r2
 994 001e 03D1     		bne	.L89
 995 0020 1A68     		ldr	r2, [r3]
 996 0022 22F00102 		bic	r2, r2, #1
 997 0026 1A60     		str	r2, [r3]
 998              	.L89:
 999 0028 2046     		mov	r0, r4
 1000 002a FFF7FEFF 		bl	HAL_TIM_OnePulse_MspDeInit
 1001 002e 0020     		movs	r0, #0
 1002 0030 84F84600 		strb	r0, [r4, #70]
 1003 0034 84F83E00 		strb	r0, [r4, #62]
 1004 0038 84F83F00 		strb	r0, [r4, #63]
 1005 003c 84F84200 		strb	r0, [r4, #66]
 1006 0040 84F84300 		strb	r0, [r4, #67]
 1007 0044 84F83D00 		strb	r0, [r4, #61]
 1008 0048 84F83C00 		strb	r0, [r4, #60]
 1009 004c 10BD     		pop	{r4, pc}
 1011              		.section	.text.HAL_TIM_Encoder_MspInit,"ax",%progbits
 1012              		.align	1
 1013              		.weak	HAL_TIM_Encoder_MspInit
 1014              		.syntax unified
 1015              		.thumb
 1016              		.thumb_func
 1018              	HAL_TIM_Encoder_MspInit:
 1019              		@ args = 0, pretend = 0, frame = 0
 1020              		@ frame_needed = 0, uses_anonymous_args = 0
 1021              		@ link register save eliminated.
 1022 0000 7047     		bx	lr
 1024              		.section	.text.HAL_TIM_Encoder_MspDeInit,"ax",%progbits
 1025              		.align	1
 1026              		.weak	HAL_TIM_Encoder_MspDeInit
 1027              		.syntax unified
 1028              		.thumb
 1029              		.thumb_func
 1031              	HAL_TIM_Encoder_MspDeInit:
 1032              		@ args = 0, pretend = 0, frame = 0
ARM GAS  /var/folders/t4/6192qx0n3zgdnvcwt906k_mw0000gn/T//cc5P7dKr.s 			page 18


 1033              		@ frame_needed = 0, uses_anonymous_args = 0
 1034              		@ link register save eliminated.
 1035 0000 7047     		bx	lr
 1037              		.section	.text.HAL_TIM_Encoder_DeInit,"ax",%progbits
 1038              		.align	1
 1039              		.global	HAL_TIM_Encoder_DeInit
 1040              		.syntax unified
 1041              		.thumb
 1042              		.thumb_func
 1044              	HAL_TIM_Encoder_DeInit:
 1045              		@ args = 0, pretend = 0, frame = 0
 1046              		@ frame_needed = 0, uses_anonymous_args = 0
 1047 0000 10B5     		push	{r4, lr}
 1048 0002 0446     		mov	r4, r0
 1049 0004 0223     		movs	r3, #2
 1050 0006 80F83D30 		strb	r3, [r0, #61]
 1051 000a 0368     		ldr	r3, [r0]
 1052 000c 196A     		ldr	r1, [r3, #32]
 1053 000e 41F21112 		movw	r2, #4369
 1054 0012 1142     		tst	r1, r2
 1055 0014 08D1     		bne	.L94
 1056 0016 196A     		ldr	r1, [r3, #32]
 1057 0018 40F24442 		movw	r2, #1092
 1058 001c 1142     		tst	r1, r2
 1059 001e 03D1     		bne	.L94
 1060 0020 1A68     		ldr	r2, [r3]
 1061 0022 22F00102 		bic	r2, r2, #1
 1062 0026 1A60     		str	r2, [r3]
 1063              	.L94:
 1064 0028 2046     		mov	r0, r4
 1065 002a FFF7FEFF 		bl	HAL_TIM_Encoder_MspDeInit
 1066 002e 0020     		movs	r0, #0
 1067 0030 84F84600 		strb	r0, [r4, #70]
 1068 0034 84F83E00 		strb	r0, [r4, #62]
 1069 0038 84F83F00 		strb	r0, [r4, #63]
 1070 003c 84F84200 		strb	r0, [r4, #66]
 1071 0040 84F84300 		strb	r0, [r4, #67]
 1072 0044 84F83D00 		strb	r0, [r4, #61]
 1073 0048 84F83C00 		strb	r0, [r4, #60]
 1074 004c 10BD     		pop	{r4, pc}
 1076              		.section	.text.HAL_TIM_DMABurst_MultiWriteStart,"ax",%progbits
 1077              		.align	1
 1078              		.global	HAL_TIM_DMABurst_MultiWriteStart
 1079              		.syntax unified
 1080              		.thumb
 1081              		.thumb_func
 1083              	HAL_TIM_DMABurst_MultiWriteStart:
 1084              		@ args = 8, pretend = 0, frame = 0
 1085              		@ frame_needed = 0, uses_anonymous_args = 0
 1086 0000 70B5     		push	{r4, r5, r6, lr}
 1087 0002 0446     		mov	r4, r0
 1088 0004 90F84600 		ldrb	r0, [r0, #70]	@ zero_extendqisi2
 1089 0008 C0B2     		uxtb	r0, r0
 1090 000a 0228     		cmp	r0, #2
 1091 000c 2FD0     		beq	.L97
 1092 000e 0E46     		mov	r6, r1
 1093 0010 1546     		mov	r5, r2
ARM GAS  /var/folders/t4/6192qx0n3zgdnvcwt906k_mw0000gn/T//cc5P7dKr.s 			page 19


 1094 0012 1946     		mov	r1, r3
 1095 0014 94F84600 		ldrb	r0, [r4, #70]	@ zero_extendqisi2
 1096 0018 C0B2     		uxtb	r0, r0
 1097 001a 0128     		cmp	r0, #1
 1098 001c 28D0     		beq	.L117
 1099              	.L98:
 1100 001e B5F5006F 		cmp	r5, #2048
 1101 0022 74D0     		beq	.L100
 1102 0024 2FD8     		bhi	.L101
 1103 0026 B5F5007F 		cmp	r5, #512
 1104 002a 4AD0     		beq	.L102
 1105 002c B5F5806F 		cmp	r5, #1024
 1106 0030 5AD0     		beq	.L103
 1107 0032 B5F5807F 		cmp	r5, #256
 1108 0036 24D1     		bne	.L118
 1109 0038 236A     		ldr	r3, [r4, #32]
 1110 003a 534A     		ldr	r2, .L122
 1111 003c 9A62     		str	r2, [r3, #40]
 1112 003e 236A     		ldr	r3, [r4, #32]
 1113 0040 524A     		ldr	r2, .L122+4
 1114 0042 DA62     		str	r2, [r3, #44]
 1115 0044 236A     		ldr	r3, [r4, #32]
 1116 0046 524A     		ldr	r2, .L122+8
 1117 0048 1A63     		str	r2, [r3, #48]
 1118 004a 2268     		ldr	r2, [r4]
 1119 004c 059B     		ldr	r3, [sp, #20]
 1120 004e 4C32     		adds	r2, r2, #76
 1121 0050 206A     		ldr	r0, [r4, #32]
 1122 0052 FFF7FEFF 		bl	HAL_DMA_Start_IT
 1123 0056 0028     		cmp	r0, #0
 1124 0058 40F09380 		bne	.L119
 1125              	.L108:
 1126 005c 2368     		ldr	r3, [r4]
 1127 005e 049A     		ldr	r2, [sp, #16]
 1128 0060 1643     		orrs	r6, r6, r2
 1129 0062 9E64     		str	r6, [r3, #72]
 1130 0064 2268     		ldr	r2, [r4]
 1131 0066 D368     		ldr	r3, [r2, #12]
 1132 0068 2B43     		orrs	r3, r3, r5
 1133 006a D360     		str	r3, [r2, #12]
 1134 006c 0020     		movs	r0, #0
 1135              	.L97:
 1136 006e 70BD     		pop	{r4, r5, r6, pc}
 1137              	.L117:
 1138 0070 1BB1     		cbz	r3, .L120
 1139              	.L99:
 1140 0072 0223     		movs	r3, #2
 1141 0074 84F84630 		strb	r3, [r4, #70]
 1142 0078 D1E7     		b	.L98
 1143              	.L120:
 1144 007a 049B     		ldr	r3, [sp, #16]
 1145 007c 002B     		cmp	r3, #0
 1146 007e F8D0     		beq	.L99
 1147 0080 F5E7     		b	.L97
 1148              	.L118:
 1149 0082 0120     		movs	r0, #1
 1150 0084 F3E7     		b	.L97
ARM GAS  /var/folders/t4/6192qx0n3zgdnvcwt906k_mw0000gn/T//cc5P7dKr.s 			page 20


 1151              	.L101:
 1152 0086 B5F5005F 		cmp	r5, #8192
 1153 008a 53D0     		beq	.L105
 1154 008c B5F5804F 		cmp	r5, #16384
 1155 0090 63D0     		beq	.L106
 1156 0092 B5F5805F 		cmp	r5, #4096
 1157 0096 12D1     		bne	.L121
 1158 0098 236B     		ldr	r3, [r4, #48]
 1159 009a 3E4A     		ldr	r2, .L122+12
 1160 009c 9A62     		str	r2, [r3, #40]
 1161 009e 236B     		ldr	r3, [r4, #48]
 1162 00a0 3D4A     		ldr	r2, .L122+16
 1163 00a2 DA62     		str	r2, [r3, #44]
 1164 00a4 236B     		ldr	r3, [r4, #48]
 1165 00a6 3A4A     		ldr	r2, .L122+8
 1166 00a8 1A63     		str	r2, [r3, #48]
 1167 00aa 2268     		ldr	r2, [r4]
 1168 00ac 059B     		ldr	r3, [sp, #20]
 1169 00ae 4C32     		adds	r2, r2, #76
 1170 00b0 206B     		ldr	r0, [r4, #48]
 1171 00b2 FFF7FEFF 		bl	HAL_DMA_Start_IT
 1172 00b6 0028     		cmp	r0, #0
 1173 00b8 D0D0     		beq	.L108
 1174 00ba 0120     		movs	r0, #1
 1175 00bc D7E7     		b	.L97
 1176              	.L121:
 1177 00be 0120     		movs	r0, #1
 1178 00c0 D5E7     		b	.L97
 1179              	.L102:
 1180 00c2 636A     		ldr	r3, [r4, #36]
 1181 00c4 334A     		ldr	r2, .L122+12
 1182 00c6 9A62     		str	r2, [r3, #40]
 1183 00c8 636A     		ldr	r3, [r4, #36]
 1184 00ca 334A     		ldr	r2, .L122+16
 1185 00cc DA62     		str	r2, [r3, #44]
 1186 00ce 636A     		ldr	r3, [r4, #36]
 1187 00d0 2F4A     		ldr	r2, .L122+8
 1188 00d2 1A63     		str	r2, [r3, #48]
 1189 00d4 2268     		ldr	r2, [r4]
 1190 00d6 059B     		ldr	r3, [sp, #20]
 1191 00d8 4C32     		adds	r2, r2, #76
 1192 00da 606A     		ldr	r0, [r4, #36]
 1193 00dc FFF7FEFF 		bl	HAL_DMA_Start_IT
 1194 00e0 0028     		cmp	r0, #0
 1195 00e2 BBD0     		beq	.L108
 1196 00e4 0120     		movs	r0, #1
 1197 00e6 C2E7     		b	.L97
 1198              	.L103:
 1199 00e8 A36A     		ldr	r3, [r4, #40]
 1200 00ea 2A4A     		ldr	r2, .L122+12
 1201 00ec 9A62     		str	r2, [r3, #40]
 1202 00ee A36A     		ldr	r3, [r4, #40]
 1203 00f0 294A     		ldr	r2, .L122+16
 1204 00f2 DA62     		str	r2, [r3, #44]
 1205 00f4 A36A     		ldr	r3, [r4, #40]
 1206 00f6 264A     		ldr	r2, .L122+8
 1207 00f8 1A63     		str	r2, [r3, #48]
ARM GAS  /var/folders/t4/6192qx0n3zgdnvcwt906k_mw0000gn/T//cc5P7dKr.s 			page 21


 1208 00fa 2268     		ldr	r2, [r4]
 1209 00fc 059B     		ldr	r3, [sp, #20]
 1210 00fe 4C32     		adds	r2, r2, #76
 1211 0100 A06A     		ldr	r0, [r4, #40]
 1212 0102 FFF7FEFF 		bl	HAL_DMA_Start_IT
 1213 0106 0028     		cmp	r0, #0
 1214 0108 A8D0     		beq	.L108
 1215 010a 0120     		movs	r0, #1
 1216 010c AFE7     		b	.L97
 1217              	.L100:
 1218 010e E36A     		ldr	r3, [r4, #44]
 1219 0110 204A     		ldr	r2, .L122+12
 1220 0112 9A62     		str	r2, [r3, #40]
 1221 0114 E36A     		ldr	r3, [r4, #44]
 1222 0116 204A     		ldr	r2, .L122+16
 1223 0118 DA62     		str	r2, [r3, #44]
 1224 011a E36A     		ldr	r3, [r4, #44]
 1225 011c 1C4A     		ldr	r2, .L122+8
 1226 011e 1A63     		str	r2, [r3, #48]
 1227 0120 2268     		ldr	r2, [r4]
 1228 0122 059B     		ldr	r3, [sp, #20]
 1229 0124 4C32     		adds	r2, r2, #76
 1230 0126 E06A     		ldr	r0, [r4, #44]
 1231 0128 FFF7FEFF 		bl	HAL_DMA_Start_IT
 1232 012c 0028     		cmp	r0, #0
 1233 012e 95D0     		beq	.L108
 1234 0130 0120     		movs	r0, #1
 1235 0132 9CE7     		b	.L97
 1236              	.L105:
 1237 0134 636B     		ldr	r3, [r4, #52]
 1238 0136 194A     		ldr	r2, .L122+20
 1239 0138 9A62     		str	r2, [r3, #40]
 1240 013a 636B     		ldr	r3, [r4, #52]
 1241 013c 184A     		ldr	r2, .L122+24
 1242 013e DA62     		str	r2, [r3, #44]
 1243 0140 636B     		ldr	r3, [r4, #52]
 1244 0142 134A     		ldr	r2, .L122+8
 1245 0144 1A63     		str	r2, [r3, #48]
 1246 0146 2268     		ldr	r2, [r4]
 1247 0148 059B     		ldr	r3, [sp, #20]
 1248 014a 4C32     		adds	r2, r2, #76
 1249 014c 606B     		ldr	r0, [r4, #52]
 1250 014e FFF7FEFF 		bl	HAL_DMA_Start_IT
 1251 0152 0028     		cmp	r0, #0
 1252 0154 82D0     		beq	.L108
 1253 0156 0120     		movs	r0, #1
 1254 0158 89E7     		b	.L97
 1255              	.L106:
 1256 015a A36B     		ldr	r3, [r4, #56]
 1257 015c 114A     		ldr	r2, .L122+28
 1258 015e 9A62     		str	r2, [r3, #40]
 1259 0160 A36B     		ldr	r3, [r4, #56]
 1260 0162 114A     		ldr	r2, .L122+32
 1261 0164 DA62     		str	r2, [r3, #44]
 1262 0166 A36B     		ldr	r3, [r4, #56]
 1263 0168 094A     		ldr	r2, .L122+8
 1264 016a 1A63     		str	r2, [r3, #48]
ARM GAS  /var/folders/t4/6192qx0n3zgdnvcwt906k_mw0000gn/T//cc5P7dKr.s 			page 22


 1265 016c 2268     		ldr	r2, [r4]
 1266 016e 059B     		ldr	r3, [sp, #20]
 1267 0170 4C32     		adds	r2, r2, #76
 1268 0172 A06B     		ldr	r0, [r4, #56]
 1269 0174 FFF7FEFF 		bl	HAL_DMA_Start_IT
 1270 0178 0028     		cmp	r0, #0
 1271 017a 3FF46FAF 		beq	.L108
 1272 017e 0120     		movs	r0, #1
 1273 0180 75E7     		b	.L97
 1274              	.L119:
 1275 0182 0120     		movs	r0, #1
 1276 0184 73E7     		b	.L97
 1277              	.L123:
 1278 0186 00BF     		.align	2
 1279              	.L122:
 1280 0188 00000000 		.word	TIM_DMAPeriodElapsedCplt
 1281 018c 00000000 		.word	TIM_DMAPeriodElapsedHalfCplt
 1282 0190 00000000 		.word	TIM_DMAError
 1283 0194 00000000 		.word	TIM_DMADelayPulseCplt
 1284 0198 00000000 		.word	TIM_DMADelayPulseHalfCplt
 1285 019c 00000000 		.word	TIMEx_DMACommutationCplt
 1286 01a0 00000000 		.word	TIMEx_DMACommutationHalfCplt
 1287 01a4 00000000 		.word	TIM_DMATriggerCplt
 1288 01a8 00000000 		.word	TIM_DMATriggerHalfCplt
 1290              		.section	.text.HAL_TIM_DMABurst_WriteStart,"ax",%progbits
 1291              		.align	1
 1292              		.global	HAL_TIM_DMABurst_WriteStart
 1293              		.syntax unified
 1294              		.thumb
 1295              		.thumb_func
 1297              	HAL_TIM_DMABurst_WriteStart:
 1298              		@ args = 4, pretend = 0, frame = 0
 1299              		@ frame_needed = 0, uses_anonymous_args = 0
 1300 0000 30B5     		push	{r4, r5, lr}
 1301 0002 83B0     		sub	sp, sp, #12
 1302 0004 069D     		ldr	r5, [sp, #24]
 1303 0006 2C0A     		lsrs	r4, r5, #8
 1304 0008 0134     		adds	r4, r4, #1
 1305 000a 0194     		str	r4, [sp, #4]
 1306 000c 0095     		str	r5, [sp]
 1307 000e FFF7FEFF 		bl	HAL_TIM_DMABurst_MultiWriteStart
 1308 0012 03B0     		add	sp, sp, #12
 1309              		@ sp needed
 1310 0014 30BD     		pop	{r4, r5, pc}
 1312              		.section	.text.HAL_TIM_DMABurst_WriteStop,"ax",%progbits
 1313              		.align	1
 1314              		.global	HAL_TIM_DMABurst_WriteStop
 1315              		.syntax unified
 1316              		.thumb
 1317              		.thumb_func
 1319              	HAL_TIM_DMABurst_WriteStop:
 1320              		@ args = 0, pretend = 0, frame = 0
 1321              		@ frame_needed = 0, uses_anonymous_args = 0
 1322 0000 38B5     		push	{r3, r4, r5, lr}
 1323 0002 0546     		mov	r5, r0
 1324 0004 0C46     		mov	r4, r1
 1325 0006 B1F5006F 		cmp	r1, #2048
ARM GAS  /var/folders/t4/6192qx0n3zgdnvcwt906k_mw0000gn/T//cc5P7dKr.s 			page 23


 1326 000a 2FD0     		beq	.L127
 1327 000c 17D8     		bhi	.L128
 1328 000e B1F5007F 		cmp	r1, #512
 1329 0012 23D0     		beq	.L129
 1330 0014 B1F5806F 		cmp	r1, #1024
 1331 0018 24D0     		beq	.L130
 1332 001a B1F5807F 		cmp	r1, #256
 1333 001e 0CD1     		bne	.L138
 1334 0020 006A     		ldr	r0, [r0, #32]
 1335 0022 FFF7FEFF 		bl	HAL_DMA_Abort_IT
 1336              	.L136:
 1337 0026 2A68     		ldr	r2, [r5]
 1338 0028 D368     		ldr	r3, [r2, #12]
 1339 002a 23EA0403 		bic	r3, r3, r4
 1340 002e D360     		str	r3, [r2, #12]
 1341 0030 0123     		movs	r3, #1
 1342 0032 85F84630 		strb	r3, [r5, #70]
 1343 0036 0020     		movs	r0, #0
 1344              	.L132:
 1345 0038 38BD     		pop	{r3, r4, r5, pc}
 1346              	.L138:
 1347 003a 0120     		movs	r0, #1
 1348 003c FCE7     		b	.L132
 1349              	.L128:
 1350 003e B1F5005F 		cmp	r1, #8192
 1351 0042 17D0     		beq	.L133
 1352 0044 B1F5804F 		cmp	r1, #16384
 1353 0048 18D0     		beq	.L134
 1354 004a B1F5805F 		cmp	r1, #4096
 1355 004e 03D1     		bne	.L139
 1356 0050 006B     		ldr	r0, [r0, #48]
 1357 0052 FFF7FEFF 		bl	HAL_DMA_Abort_IT
 1358 0056 E6E7     		b	.L136
 1359              	.L139:
 1360 0058 0120     		movs	r0, #1
 1361 005a EDE7     		b	.L132
 1362              	.L129:
 1363 005c 406A     		ldr	r0, [r0, #36]
 1364 005e FFF7FEFF 		bl	HAL_DMA_Abort_IT
 1365 0062 E0E7     		b	.L136
 1366              	.L130:
 1367 0064 806A     		ldr	r0, [r0, #40]
 1368 0066 FFF7FEFF 		bl	HAL_DMA_Abort_IT
 1369 006a DCE7     		b	.L136
 1370              	.L127:
 1371 006c C06A     		ldr	r0, [r0, #44]
 1372 006e FFF7FEFF 		bl	HAL_DMA_Abort_IT
 1373 0072 D8E7     		b	.L136
 1374              	.L133:
 1375 0074 406B     		ldr	r0, [r0, #52]
 1376 0076 FFF7FEFF 		bl	HAL_DMA_Abort_IT
 1377 007a D4E7     		b	.L136
 1378              	.L134:
 1379 007c 806B     		ldr	r0, [r0, #56]
 1380 007e FFF7FEFF 		bl	HAL_DMA_Abort_IT
 1381 0082 D0E7     		b	.L136
 1383              		.section	.text.HAL_TIM_DMABurst_MultiReadStart,"ax",%progbits
ARM GAS  /var/folders/t4/6192qx0n3zgdnvcwt906k_mw0000gn/T//cc5P7dKr.s 			page 24


 1384              		.align	1
 1385              		.global	HAL_TIM_DMABurst_MultiReadStart
 1386              		.syntax unified
 1387              		.thumb
 1388              		.thumb_func
 1390              	HAL_TIM_DMABurst_MultiReadStart:
 1391              		@ args = 8, pretend = 0, frame = 0
 1392              		@ frame_needed = 0, uses_anonymous_args = 0
 1393 0000 70B5     		push	{r4, r5, r6, lr}
 1394 0002 0446     		mov	r4, r0
 1395 0004 90F84600 		ldrb	r0, [r0, #70]	@ zero_extendqisi2
 1396 0008 C0B2     		uxtb	r0, r0
 1397 000a 0228     		cmp	r0, #2
 1398 000c 2FD0     		beq	.L141
 1399 000e 0E46     		mov	r6, r1
 1400 0010 1546     		mov	r5, r2
 1401 0012 1A46     		mov	r2, r3
 1402 0014 94F84600 		ldrb	r0, [r4, #70]	@ zero_extendqisi2
 1403 0018 C0B2     		uxtb	r0, r0
 1404 001a 0128     		cmp	r0, #1
 1405 001c 28D0     		beq	.L161
 1406              	.L142:
 1407 001e B5F5006F 		cmp	r5, #2048
 1408 0022 74D0     		beq	.L144
 1409 0024 2FD8     		bhi	.L145
 1410 0026 B5F5007F 		cmp	r5, #512
 1411 002a 4AD0     		beq	.L146
 1412 002c B5F5806F 		cmp	r5, #1024
 1413 0030 5AD0     		beq	.L147
 1414 0032 B5F5807F 		cmp	r5, #256
 1415 0036 24D1     		bne	.L162
 1416 0038 236A     		ldr	r3, [r4, #32]
 1417 003a 5349     		ldr	r1, .L166
 1418 003c 9962     		str	r1, [r3, #40]
 1419 003e 236A     		ldr	r3, [r4, #32]
 1420 0040 5249     		ldr	r1, .L166+4
 1421 0042 D962     		str	r1, [r3, #44]
 1422 0044 236A     		ldr	r3, [r4, #32]
 1423 0046 5249     		ldr	r1, .L166+8
 1424 0048 1963     		str	r1, [r3, #48]
 1425 004a 2168     		ldr	r1, [r4]
 1426 004c 059B     		ldr	r3, [sp, #20]
 1427 004e 4C31     		adds	r1, r1, #76
 1428 0050 206A     		ldr	r0, [r4, #32]
 1429 0052 FFF7FEFF 		bl	HAL_DMA_Start_IT
 1430 0056 0028     		cmp	r0, #0
 1431 0058 40F09380 		bne	.L163
 1432              	.L152:
 1433 005c 2368     		ldr	r3, [r4]
 1434 005e 049A     		ldr	r2, [sp, #16]
 1435 0060 1643     		orrs	r6, r6, r2
 1436 0062 9E64     		str	r6, [r3, #72]
 1437 0064 2268     		ldr	r2, [r4]
 1438 0066 D368     		ldr	r3, [r2, #12]
 1439 0068 2B43     		orrs	r3, r3, r5
 1440 006a D360     		str	r3, [r2, #12]
 1441 006c 0020     		movs	r0, #0
ARM GAS  /var/folders/t4/6192qx0n3zgdnvcwt906k_mw0000gn/T//cc5P7dKr.s 			page 25


 1442              	.L141:
 1443 006e 70BD     		pop	{r4, r5, r6, pc}
 1444              	.L161:
 1445 0070 1BB1     		cbz	r3, .L164
 1446              	.L143:
 1447 0072 0223     		movs	r3, #2
 1448 0074 84F84630 		strb	r3, [r4, #70]
 1449 0078 D1E7     		b	.L142
 1450              	.L164:
 1451 007a 049B     		ldr	r3, [sp, #16]
 1452 007c 002B     		cmp	r3, #0
 1453 007e F8D0     		beq	.L143
 1454 0080 F5E7     		b	.L141
 1455              	.L162:
 1456 0082 0120     		movs	r0, #1
 1457 0084 F3E7     		b	.L141
 1458              	.L145:
 1459 0086 B5F5005F 		cmp	r5, #8192
 1460 008a 53D0     		beq	.L149
 1461 008c B5F5804F 		cmp	r5, #16384
 1462 0090 63D0     		beq	.L150
 1463 0092 B5F5805F 		cmp	r5, #4096
 1464 0096 12D1     		bne	.L165
 1465 0098 236B     		ldr	r3, [r4, #48]
 1466 009a 3E49     		ldr	r1, .L166+12
 1467 009c 9962     		str	r1, [r3, #40]
 1468 009e 236B     		ldr	r3, [r4, #48]
 1469 00a0 3D49     		ldr	r1, .L166+16
 1470 00a2 D962     		str	r1, [r3, #44]
 1471 00a4 236B     		ldr	r3, [r4, #48]
 1472 00a6 3A49     		ldr	r1, .L166+8
 1473 00a8 1963     		str	r1, [r3, #48]
 1474 00aa 2168     		ldr	r1, [r4]
 1475 00ac 059B     		ldr	r3, [sp, #20]
 1476 00ae 4C31     		adds	r1, r1, #76
 1477 00b0 206B     		ldr	r0, [r4, #48]
 1478 00b2 FFF7FEFF 		bl	HAL_DMA_Start_IT
 1479 00b6 0028     		cmp	r0, #0
 1480 00b8 D0D0     		beq	.L152
 1481 00ba 0120     		movs	r0, #1
 1482 00bc D7E7     		b	.L141
 1483              	.L165:
 1484 00be 0120     		movs	r0, #1
 1485 00c0 D5E7     		b	.L141
 1486              	.L146:
 1487 00c2 636A     		ldr	r3, [r4, #36]
 1488 00c4 3349     		ldr	r1, .L166+12
 1489 00c6 9962     		str	r1, [r3, #40]
 1490 00c8 636A     		ldr	r3, [r4, #36]
 1491 00ca 3349     		ldr	r1, .L166+16
 1492 00cc D962     		str	r1, [r3, #44]
 1493 00ce 636A     		ldr	r3, [r4, #36]
 1494 00d0 2F49     		ldr	r1, .L166+8
 1495 00d2 1963     		str	r1, [r3, #48]
 1496 00d4 2168     		ldr	r1, [r4]
 1497 00d6 059B     		ldr	r3, [sp, #20]
 1498 00d8 4C31     		adds	r1, r1, #76
ARM GAS  /var/folders/t4/6192qx0n3zgdnvcwt906k_mw0000gn/T//cc5P7dKr.s 			page 26


 1499 00da 606A     		ldr	r0, [r4, #36]
 1500 00dc FFF7FEFF 		bl	HAL_DMA_Start_IT
 1501 00e0 0028     		cmp	r0, #0
 1502 00e2 BBD0     		beq	.L152
 1503 00e4 0120     		movs	r0, #1
 1504 00e6 C2E7     		b	.L141
 1505              	.L147:
 1506 00e8 A36A     		ldr	r3, [r4, #40]
 1507 00ea 2A49     		ldr	r1, .L166+12
 1508 00ec 9962     		str	r1, [r3, #40]
 1509 00ee A36A     		ldr	r3, [r4, #40]
 1510 00f0 2949     		ldr	r1, .L166+16
 1511 00f2 D962     		str	r1, [r3, #44]
 1512 00f4 A36A     		ldr	r3, [r4, #40]
 1513 00f6 2649     		ldr	r1, .L166+8
 1514 00f8 1963     		str	r1, [r3, #48]
 1515 00fa 2168     		ldr	r1, [r4]
 1516 00fc 059B     		ldr	r3, [sp, #20]
 1517 00fe 4C31     		adds	r1, r1, #76
 1518 0100 A06A     		ldr	r0, [r4, #40]
 1519 0102 FFF7FEFF 		bl	HAL_DMA_Start_IT
 1520 0106 0028     		cmp	r0, #0
 1521 0108 A8D0     		beq	.L152
 1522 010a 0120     		movs	r0, #1
 1523 010c AFE7     		b	.L141
 1524              	.L144:
 1525 010e E36A     		ldr	r3, [r4, #44]
 1526 0110 2049     		ldr	r1, .L166+12
 1527 0112 9962     		str	r1, [r3, #40]
 1528 0114 E36A     		ldr	r3, [r4, #44]
 1529 0116 2049     		ldr	r1, .L166+16
 1530 0118 D962     		str	r1, [r3, #44]
 1531 011a E36A     		ldr	r3, [r4, #44]
 1532 011c 1C49     		ldr	r1, .L166+8
 1533 011e 1963     		str	r1, [r3, #48]
 1534 0120 2168     		ldr	r1, [r4]
 1535 0122 059B     		ldr	r3, [sp, #20]
 1536 0124 4C31     		adds	r1, r1, #76
 1537 0126 E06A     		ldr	r0, [r4, #44]
 1538 0128 FFF7FEFF 		bl	HAL_DMA_Start_IT
 1539 012c 0028     		cmp	r0, #0
 1540 012e 95D0     		beq	.L152
 1541 0130 0120     		movs	r0, #1
 1542 0132 9CE7     		b	.L141
 1543              	.L149:
 1544 0134 636B     		ldr	r3, [r4, #52]
 1545 0136 1949     		ldr	r1, .L166+20
 1546 0138 9962     		str	r1, [r3, #40]
 1547 013a 636B     		ldr	r3, [r4, #52]
 1548 013c 1849     		ldr	r1, .L166+24
 1549 013e D962     		str	r1, [r3, #44]
 1550 0140 636B     		ldr	r3, [r4, #52]
 1551 0142 1349     		ldr	r1, .L166+8
 1552 0144 1963     		str	r1, [r3, #48]
 1553 0146 2168     		ldr	r1, [r4]
 1554 0148 059B     		ldr	r3, [sp, #20]
 1555 014a 4C31     		adds	r1, r1, #76
ARM GAS  /var/folders/t4/6192qx0n3zgdnvcwt906k_mw0000gn/T//cc5P7dKr.s 			page 27


 1556 014c 606B     		ldr	r0, [r4, #52]
 1557 014e FFF7FEFF 		bl	HAL_DMA_Start_IT
 1558 0152 0028     		cmp	r0, #0
 1559 0154 82D0     		beq	.L152
 1560 0156 0120     		movs	r0, #1
 1561 0158 89E7     		b	.L141
 1562              	.L150:
 1563 015a A36B     		ldr	r3, [r4, #56]
 1564 015c 1149     		ldr	r1, .L166+28
 1565 015e 9962     		str	r1, [r3, #40]
 1566 0160 A36B     		ldr	r3, [r4, #56]
 1567 0162 1149     		ldr	r1, .L166+32
 1568 0164 D962     		str	r1, [r3, #44]
 1569 0166 A36B     		ldr	r3, [r4, #56]
 1570 0168 0949     		ldr	r1, .L166+8
 1571 016a 1963     		str	r1, [r3, #48]
 1572 016c 2168     		ldr	r1, [r4]
 1573 016e 059B     		ldr	r3, [sp, #20]
 1574 0170 4C31     		adds	r1, r1, #76
 1575 0172 A06B     		ldr	r0, [r4, #56]
 1576 0174 FFF7FEFF 		bl	HAL_DMA_Start_IT
 1577 0178 0028     		cmp	r0, #0
 1578 017a 3FF46FAF 		beq	.L152
 1579 017e 0120     		movs	r0, #1
 1580 0180 75E7     		b	.L141
 1581              	.L163:
 1582 0182 0120     		movs	r0, #1
 1583 0184 73E7     		b	.L141
 1584              	.L167:
 1585 0186 00BF     		.align	2
 1586              	.L166:
 1587 0188 00000000 		.word	TIM_DMAPeriodElapsedCplt
 1588 018c 00000000 		.word	TIM_DMAPeriodElapsedHalfCplt
 1589 0190 00000000 		.word	TIM_DMAError
 1590 0194 00000000 		.word	TIM_DMACaptureCplt
 1591 0198 00000000 		.word	TIM_DMACaptureHalfCplt
 1592 019c 00000000 		.word	TIMEx_DMACommutationCplt
 1593 01a0 00000000 		.word	TIMEx_DMACommutationHalfCplt
 1594 01a4 00000000 		.word	TIM_DMATriggerCplt
 1595 01a8 00000000 		.word	TIM_DMATriggerHalfCplt
 1597              		.section	.text.HAL_TIM_DMABurst_ReadStart,"ax",%progbits
 1598              		.align	1
 1599              		.global	HAL_TIM_DMABurst_ReadStart
 1600              		.syntax unified
 1601              		.thumb
 1602              		.thumb_func
 1604              	HAL_TIM_DMABurst_ReadStart:
 1605              		@ args = 4, pretend = 0, frame = 0
 1606              		@ frame_needed = 0, uses_anonymous_args = 0
 1607 0000 30B5     		push	{r4, r5, lr}
 1608 0002 83B0     		sub	sp, sp, #12
 1609 0004 069D     		ldr	r5, [sp, #24]
 1610 0006 2C0A     		lsrs	r4, r5, #8
 1611 0008 0134     		adds	r4, r4, #1
 1612 000a 0194     		str	r4, [sp, #4]
 1613 000c 0095     		str	r5, [sp]
 1614 000e FFF7FEFF 		bl	HAL_TIM_DMABurst_MultiReadStart
ARM GAS  /var/folders/t4/6192qx0n3zgdnvcwt906k_mw0000gn/T//cc5P7dKr.s 			page 28


 1615 0012 03B0     		add	sp, sp, #12
 1616              		@ sp needed
 1617 0014 30BD     		pop	{r4, r5, pc}
 1619              		.section	.text.HAL_TIM_DMABurst_ReadStop,"ax",%progbits
 1620              		.align	1
 1621              		.global	HAL_TIM_DMABurst_ReadStop
 1622              		.syntax unified
 1623              		.thumb
 1624              		.thumb_func
 1626              	HAL_TIM_DMABurst_ReadStop:
 1627              		@ args = 0, pretend = 0, frame = 0
 1628              		@ frame_needed = 0, uses_anonymous_args = 0
 1629 0000 38B5     		push	{r3, r4, r5, lr}
 1630 0002 0546     		mov	r5, r0
 1631 0004 0C46     		mov	r4, r1
 1632 0006 B1F5006F 		cmp	r1, #2048
 1633 000a 2FD0     		beq	.L171
 1634 000c 17D8     		bhi	.L172
 1635 000e B1F5007F 		cmp	r1, #512
 1636 0012 23D0     		beq	.L173
 1637 0014 B1F5806F 		cmp	r1, #1024
 1638 0018 24D0     		beq	.L174
 1639 001a B1F5807F 		cmp	r1, #256
 1640 001e 0CD1     		bne	.L182
 1641 0020 006A     		ldr	r0, [r0, #32]
 1642 0022 FFF7FEFF 		bl	HAL_DMA_Abort_IT
 1643              	.L180:
 1644 0026 2A68     		ldr	r2, [r5]
 1645 0028 D368     		ldr	r3, [r2, #12]
 1646 002a 23EA0403 		bic	r3, r3, r4
 1647 002e D360     		str	r3, [r2, #12]
 1648 0030 0123     		movs	r3, #1
 1649 0032 85F84630 		strb	r3, [r5, #70]
 1650 0036 0020     		movs	r0, #0
 1651              	.L176:
 1652 0038 38BD     		pop	{r3, r4, r5, pc}
 1653              	.L182:
 1654 003a 0120     		movs	r0, #1
 1655 003c FCE7     		b	.L176
 1656              	.L172:
 1657 003e B1F5005F 		cmp	r1, #8192
 1658 0042 17D0     		beq	.L177
 1659 0044 B1F5804F 		cmp	r1, #16384
 1660 0048 18D0     		beq	.L178
 1661 004a B1F5805F 		cmp	r1, #4096
 1662 004e 03D1     		bne	.L183
 1663 0050 006B     		ldr	r0, [r0, #48]
 1664 0052 FFF7FEFF 		bl	HAL_DMA_Abort_IT
 1665 0056 E6E7     		b	.L180
 1666              	.L183:
 1667 0058 0120     		movs	r0, #1
 1668 005a EDE7     		b	.L176
 1669              	.L173:
 1670 005c 406A     		ldr	r0, [r0, #36]
 1671 005e FFF7FEFF 		bl	HAL_DMA_Abort_IT
 1672 0062 E0E7     		b	.L180
 1673              	.L174:
ARM GAS  /var/folders/t4/6192qx0n3zgdnvcwt906k_mw0000gn/T//cc5P7dKr.s 			page 29


 1674 0064 806A     		ldr	r0, [r0, #40]
 1675 0066 FFF7FEFF 		bl	HAL_DMA_Abort_IT
 1676 006a DCE7     		b	.L180
 1677              	.L171:
 1678 006c C06A     		ldr	r0, [r0, #44]
 1679 006e FFF7FEFF 		bl	HAL_DMA_Abort_IT
 1680 0072 D8E7     		b	.L180
 1681              	.L177:
 1682 0074 406B     		ldr	r0, [r0, #52]
 1683 0076 FFF7FEFF 		bl	HAL_DMA_Abort_IT
 1684 007a D4E7     		b	.L180
 1685              	.L178:
 1686 007c 806B     		ldr	r0, [r0, #56]
 1687 007e FFF7FEFF 		bl	HAL_DMA_Abort_IT
 1688 0082 D0E7     		b	.L180
 1690              		.section	.text.HAL_TIM_GenerateEvent,"ax",%progbits
 1691              		.align	1
 1692              		.global	HAL_TIM_GenerateEvent
 1693              		.syntax unified
 1694              		.thumb
 1695              		.thumb_func
 1697              	HAL_TIM_GenerateEvent:
 1698              		@ args = 0, pretend = 0, frame = 0
 1699              		@ frame_needed = 0, uses_anonymous_args = 0
 1700              		@ link register save eliminated.
 1701 0000 90F83C30 		ldrb	r3, [r0, #60]	@ zero_extendqisi2
 1702 0004 012B     		cmp	r3, #1
 1703 0006 0ED0     		beq	.L186
 1704 0008 0123     		movs	r3, #1
 1705 000a 80F83C30 		strb	r3, [r0, #60]
 1706 000e 0222     		movs	r2, #2
 1707 0010 80F83D20 		strb	r2, [r0, #61]
 1708 0014 0268     		ldr	r2, [r0]
 1709 0016 5161     		str	r1, [r2, #20]
 1710 0018 80F83D30 		strb	r3, [r0, #61]
 1711 001c 0023     		movs	r3, #0
 1712 001e 80F83C30 		strb	r3, [r0, #60]
 1713 0022 1846     		mov	r0, r3
 1714 0024 7047     		bx	lr
 1715              	.L186:
 1716 0026 0220     		movs	r0, #2
 1717 0028 7047     		bx	lr
 1719              		.section	.text.HAL_TIM_ConfigTI1Input,"ax",%progbits
 1720              		.align	1
 1721              		.global	HAL_TIM_ConfigTI1Input
 1722              		.syntax unified
 1723              		.thumb
 1724              		.thumb_func
 1726              	HAL_TIM_ConfigTI1Input:
 1727              		@ args = 0, pretend = 0, frame = 0
 1728              		@ frame_needed = 0, uses_anonymous_args = 0
 1729              		@ link register save eliminated.
 1730 0000 0268     		ldr	r2, [r0]
 1731 0002 5368     		ldr	r3, [r2, #4]
 1732 0004 23F08003 		bic	r3, r3, #128
 1733 0008 0B43     		orrs	r3, r3, r1
 1734 000a 5360     		str	r3, [r2, #4]
ARM GAS  /var/folders/t4/6192qx0n3zgdnvcwt906k_mw0000gn/T//cc5P7dKr.s 			page 30


 1735 000c 0020     		movs	r0, #0
 1736 000e 7047     		bx	lr
 1738              		.section	.text.HAL_TIM_ReadCapturedValue,"ax",%progbits
 1739              		.align	1
 1740              		.global	HAL_TIM_ReadCapturedValue
 1741              		.syntax unified
 1742              		.thumb
 1743              		.thumb_func
 1745              	HAL_TIM_ReadCapturedValue:
 1746              		@ args = 0, pretend = 0, frame = 0
 1747              		@ frame_needed = 0, uses_anonymous_args = 0
 1748              		@ link register save eliminated.
 1749 0000 0C29     		cmp	r1, #12
 1750 0002 14D8     		bhi	.L195
 1751 0004 DFE801F0 		tbb	[pc, r1]
 1752              	.L191:
 1753 0008 07       		.byte	(.L194-.L191)/2
 1754 0009 13       		.byte	(.L195-.L191)/2
 1755 000a 13       		.byte	(.L195-.L191)/2
 1756 000b 13       		.byte	(.L195-.L191)/2
 1757 000c 0A       		.byte	(.L193-.L191)/2
 1758 000d 13       		.byte	(.L195-.L191)/2
 1759 000e 13       		.byte	(.L195-.L191)/2
 1760 000f 13       		.byte	(.L195-.L191)/2
 1761 0010 0D       		.byte	(.L192-.L191)/2
 1762 0011 13       		.byte	(.L195-.L191)/2
 1763 0012 13       		.byte	(.L195-.L191)/2
 1764 0013 13       		.byte	(.L195-.L191)/2
 1765 0014 10       		.byte	(.L190-.L191)/2
 1766 0015 00       		.p2align 1
 1767              	.L194:
 1768 0016 0368     		ldr	r3, [r0]
 1769 0018 586B     		ldr	r0, [r3, #52]
 1770 001a 7047     		bx	lr
 1771              	.L193:
 1772 001c 0368     		ldr	r3, [r0]
 1773 001e 986B     		ldr	r0, [r3, #56]
 1774 0020 7047     		bx	lr
 1775              	.L192:
 1776 0022 0368     		ldr	r3, [r0]
 1777 0024 D86B     		ldr	r0, [r3, #60]
 1778 0026 7047     		bx	lr
 1779              	.L190:
 1780 0028 0368     		ldr	r3, [r0]
 1781 002a 186C     		ldr	r0, [r3, #64]
 1782 002c 7047     		bx	lr
 1783              	.L195:
 1784 002e 0020     		movs	r0, #0
 1785 0030 7047     		bx	lr
 1787              		.section	.text.HAL_TIM_PeriodElapsedCallback,"ax",%progbits
 1788              		.align	1
 1789              		.weak	HAL_TIM_PeriodElapsedCallback
 1790              		.syntax unified
 1791              		.thumb
 1792              		.thumb_func
 1794              	HAL_TIM_PeriodElapsedCallback:
 1795              		@ args = 0, pretend = 0, frame = 0
ARM GAS  /var/folders/t4/6192qx0n3zgdnvcwt906k_mw0000gn/T//cc5P7dKr.s 			page 31


 1796              		@ frame_needed = 0, uses_anonymous_args = 0
 1797              		@ link register save eliminated.
 1798 0000 7047     		bx	lr
 1800              		.section	.text.TIM_DMAPeriodElapsedCplt,"ax",%progbits
 1801              		.align	1
 1802              		.syntax unified
 1803              		.thumb
 1804              		.thumb_func
 1806              	TIM_DMAPeriodElapsedCplt:
 1807              		@ args = 0, pretend = 0, frame = 0
 1808              		@ frame_needed = 0, uses_anonymous_args = 0
 1809 0000 08B5     		push	{r3, lr}
 1810 0002 406A     		ldr	r0, [r0, #36]
 1811 0004 036A     		ldr	r3, [r0, #32]
 1812 0006 9B69     		ldr	r3, [r3, #24]
 1813 0008 13B9     		cbnz	r3, .L198
 1814 000a 0123     		movs	r3, #1
 1815 000c 80F83D30 		strb	r3, [r0, #61]
 1816              	.L198:
 1817 0010 FFF7FEFF 		bl	HAL_TIM_PeriodElapsedCallback
 1818 0014 08BD     		pop	{r3, pc}
 1820              		.section	.text.HAL_TIM_PeriodElapsedHalfCpltCallback,"ax",%progbits
 1821              		.align	1
 1822              		.weak	HAL_TIM_PeriodElapsedHalfCpltCallback
 1823              		.syntax unified
 1824              		.thumb
 1825              		.thumb_func
 1827              	HAL_TIM_PeriodElapsedHalfCpltCallback:
 1828              		@ args = 0, pretend = 0, frame = 0
 1829              		@ frame_needed = 0, uses_anonymous_args = 0
 1830              		@ link register save eliminated.
 1831 0000 7047     		bx	lr
 1833              		.section	.text.TIM_DMAPeriodElapsedHalfCplt,"ax",%progbits
 1834              		.align	1
 1835              		.syntax unified
 1836              		.thumb
 1837              		.thumb_func
 1839              	TIM_DMAPeriodElapsedHalfCplt:
 1840              		@ args = 0, pretend = 0, frame = 0
 1841              		@ frame_needed = 0, uses_anonymous_args = 0
 1842 0000 08B5     		push	{r3, lr}
 1843 0002 406A     		ldr	r0, [r0, #36]
 1844 0004 FFF7FEFF 		bl	HAL_TIM_PeriodElapsedHalfCpltCallback
 1845 0008 08BD     		pop	{r3, pc}
 1847              		.section	.text.HAL_TIM_OC_DelayElapsedCallback,"ax",%progbits
 1848              		.align	1
 1849              		.weak	HAL_TIM_OC_DelayElapsedCallback
 1850              		.syntax unified
 1851              		.thumb
 1852              		.thumb_func
 1854              	HAL_TIM_OC_DelayElapsedCallback:
 1855              		@ args = 0, pretend = 0, frame = 0
 1856              		@ frame_needed = 0, uses_anonymous_args = 0
 1857              		@ link register save eliminated.
 1858 0000 7047     		bx	lr
 1860              		.section	.text.HAL_TIM_IC_CaptureCallback,"ax",%progbits
 1861              		.align	1
ARM GAS  /var/folders/t4/6192qx0n3zgdnvcwt906k_mw0000gn/T//cc5P7dKr.s 			page 32


 1862              		.weak	HAL_TIM_IC_CaptureCallback
 1863              		.syntax unified
 1864              		.thumb
 1865              		.thumb_func
 1867              	HAL_TIM_IC_CaptureCallback:
 1868              		@ args = 0, pretend = 0, frame = 0
 1869              		@ frame_needed = 0, uses_anonymous_args = 0
 1870              		@ link register save eliminated.
 1871 0000 7047     		bx	lr
 1873              		.section	.text.TIM_DMACaptureCplt,"ax",%progbits
 1874              		.align	1
 1875              		.global	TIM_DMACaptureCplt
 1876              		.syntax unified
 1877              		.thumb
 1878              		.thumb_func
 1880              	TIM_DMACaptureCplt:
 1881              		@ args = 0, pretend = 0, frame = 0
 1882              		@ frame_needed = 0, uses_anonymous_args = 0
 1883 0000 10B5     		push	{r4, lr}
 1884 0002 446A     		ldr	r4, [r0, #36]
 1885 0004 636A     		ldr	r3, [r4, #36]
 1886 0006 8342     		cmp	r3, r0
 1887 0008 0ED0     		beq	.L211
 1888 000a A36A     		ldr	r3, [r4, #40]
 1889 000c 8342     		cmp	r3, r0
 1890 000e 16D0     		beq	.L212
 1891 0010 E36A     		ldr	r3, [r4, #44]
 1892 0012 8342     		cmp	r3, r0
 1893 0014 1ED0     		beq	.L213
 1894 0016 236B     		ldr	r3, [r4, #48]
 1895 0018 8342     		cmp	r3, r0
 1896 001a 26D0     		beq	.L214
 1897              	.L207:
 1898 001c 2046     		mov	r0, r4
 1899 001e FFF7FEFF 		bl	HAL_TIM_IC_CaptureCallback
 1900 0022 0023     		movs	r3, #0
 1901 0024 2377     		strb	r3, [r4, #28]
 1902 0026 10BD     		pop	{r4, pc}
 1903              	.L211:
 1904 0028 0123     		movs	r3, #1
 1905 002a 2377     		strb	r3, [r4, #28]
 1906 002c 8369     		ldr	r3, [r0, #24]
 1907 002e 002B     		cmp	r3, #0
 1908 0030 F4D1     		bne	.L207
 1909 0032 0123     		movs	r3, #1
 1910 0034 84F83E30 		strb	r3, [r4, #62]
 1911 0038 84F84230 		strb	r3, [r4, #66]
 1912 003c EEE7     		b	.L207
 1913              	.L212:
 1914 003e 0223     		movs	r3, #2
 1915 0040 2377     		strb	r3, [r4, #28]
 1916 0042 8369     		ldr	r3, [r0, #24]
 1917 0044 002B     		cmp	r3, #0
 1918 0046 E9D1     		bne	.L207
 1919 0048 0123     		movs	r3, #1
 1920 004a 84F83F30 		strb	r3, [r4, #63]
 1921 004e 84F84330 		strb	r3, [r4, #67]
ARM GAS  /var/folders/t4/6192qx0n3zgdnvcwt906k_mw0000gn/T//cc5P7dKr.s 			page 33


 1922 0052 E3E7     		b	.L207
 1923              	.L213:
 1924 0054 0423     		movs	r3, #4
 1925 0056 2377     		strb	r3, [r4, #28]
 1926 0058 8369     		ldr	r3, [r0, #24]
 1927 005a 002B     		cmp	r3, #0
 1928 005c DED1     		bne	.L207
 1929 005e 0123     		movs	r3, #1
 1930 0060 84F84030 		strb	r3, [r4, #64]
 1931 0064 84F84430 		strb	r3, [r4, #68]
 1932 0068 D8E7     		b	.L207
 1933              	.L214:
 1934 006a 0823     		movs	r3, #8
 1935 006c 2377     		strb	r3, [r4, #28]
 1936 006e 8369     		ldr	r3, [r0, #24]
 1937 0070 002B     		cmp	r3, #0
 1938 0072 D3D1     		bne	.L207
 1939 0074 0123     		movs	r3, #1
 1940 0076 84F84130 		strb	r3, [r4, #65]
 1941 007a 84F84530 		strb	r3, [r4, #69]
 1942 007e CDE7     		b	.L207
 1944              		.section	.text.HAL_TIM_IC_CaptureHalfCpltCallback,"ax",%progbits
 1945              		.align	1
 1946              		.weak	HAL_TIM_IC_CaptureHalfCpltCallback
 1947              		.syntax unified
 1948              		.thumb
 1949              		.thumb_func
 1951              	HAL_TIM_IC_CaptureHalfCpltCallback:
 1952              		@ args = 0, pretend = 0, frame = 0
 1953              		@ frame_needed = 0, uses_anonymous_args = 0
 1954              		@ link register save eliminated.
 1955 0000 7047     		bx	lr
 1957              		.section	.text.TIM_DMACaptureHalfCplt,"ax",%progbits
 1958              		.align	1
 1959              		.global	TIM_DMACaptureHalfCplt
 1960              		.syntax unified
 1961              		.thumb
 1962              		.thumb_func
 1964              	TIM_DMACaptureHalfCplt:
 1965              		@ args = 0, pretend = 0, frame = 0
 1966              		@ frame_needed = 0, uses_anonymous_args = 0
 1967 0000 10B5     		push	{r4, lr}
 1968 0002 446A     		ldr	r4, [r0, #36]
 1969 0004 636A     		ldr	r3, [r4, #36]
 1970 0006 8342     		cmp	r3, r0
 1971 0008 0BD0     		beq	.L222
 1972 000a A36A     		ldr	r3, [r4, #40]
 1973 000c 8342     		cmp	r3, r0
 1974 000e 10D0     		beq	.L223
 1975 0010 E36A     		ldr	r3, [r4, #44]
 1976 0012 8342     		cmp	r3, r0
 1977 0014 10D0     		beq	.L224
 1978 0016 236B     		ldr	r3, [r4, #48]
 1979 0018 8342     		cmp	r3, r0
 1980 001a 04D1     		bne	.L218
 1981 001c 0823     		movs	r3, #8
 1982 001e 2377     		strb	r3, [r4, #28]
ARM GAS  /var/folders/t4/6192qx0n3zgdnvcwt906k_mw0000gn/T//cc5P7dKr.s 			page 34


 1983 0020 01E0     		b	.L218
 1984              	.L222:
 1985 0022 0123     		movs	r3, #1
 1986 0024 2377     		strb	r3, [r4, #28]
 1987              	.L218:
 1988 0026 2046     		mov	r0, r4
 1989 0028 FFF7FEFF 		bl	HAL_TIM_IC_CaptureHalfCpltCallback
 1990 002c 0023     		movs	r3, #0
 1991 002e 2377     		strb	r3, [r4, #28]
 1992 0030 10BD     		pop	{r4, pc}
 1993              	.L223:
 1994 0032 0223     		movs	r3, #2
 1995 0034 2377     		strb	r3, [r4, #28]
 1996 0036 F6E7     		b	.L218
 1997              	.L224:
 1998 0038 0423     		movs	r3, #4
 1999 003a 2377     		strb	r3, [r4, #28]
 2000 003c F3E7     		b	.L218
 2002              		.section	.text.HAL_TIM_PWM_PulseFinishedCallback,"ax",%progbits
 2003              		.align	1
 2004              		.weak	HAL_TIM_PWM_PulseFinishedCallback
 2005              		.syntax unified
 2006              		.thumb
 2007              		.thumb_func
 2009              	HAL_TIM_PWM_PulseFinishedCallback:
 2010              		@ args = 0, pretend = 0, frame = 0
 2011              		@ frame_needed = 0, uses_anonymous_args = 0
 2012              		@ link register save eliminated.
 2013 0000 7047     		bx	lr
 2015              		.section	.text.TIM_DMADelayPulseCplt,"ax",%progbits
 2016              		.align	1
 2017              		.syntax unified
 2018              		.thumb
 2019              		.thumb_func
 2021              	TIM_DMADelayPulseCplt:
 2022              		@ args = 0, pretend = 0, frame = 0
 2023              		@ frame_needed = 0, uses_anonymous_args = 0
 2024 0000 10B5     		push	{r4, lr}
 2025 0002 446A     		ldr	r4, [r0, #36]
 2026 0004 636A     		ldr	r3, [r4, #36]
 2027 0006 8342     		cmp	r3, r0
 2028 0008 0ED0     		beq	.L232
 2029 000a A36A     		ldr	r3, [r4, #40]
 2030 000c 8342     		cmp	r3, r0
 2031 000e 14D0     		beq	.L233
 2032 0010 E36A     		ldr	r3, [r4, #44]
 2033 0012 8342     		cmp	r3, r0
 2034 0014 1AD0     		beq	.L234
 2035 0016 236B     		ldr	r3, [r4, #48]
 2036 0018 8342     		cmp	r3, r0
 2037 001a 20D0     		beq	.L235
 2038              	.L228:
 2039 001c 2046     		mov	r0, r4
 2040 001e FFF7FEFF 		bl	HAL_TIM_PWM_PulseFinishedCallback
 2041 0022 0023     		movs	r3, #0
 2042 0024 2377     		strb	r3, [r4, #28]
 2043 0026 10BD     		pop	{r4, pc}
ARM GAS  /var/folders/t4/6192qx0n3zgdnvcwt906k_mw0000gn/T//cc5P7dKr.s 			page 35


 2044              	.L232:
 2045 0028 0123     		movs	r3, #1
 2046 002a 2377     		strb	r3, [r4, #28]
 2047 002c 8369     		ldr	r3, [r0, #24]
 2048 002e 002B     		cmp	r3, #0
 2049 0030 F4D1     		bne	.L228
 2050 0032 0123     		movs	r3, #1
 2051 0034 84F83E30 		strb	r3, [r4, #62]
 2052 0038 F0E7     		b	.L228
 2053              	.L233:
 2054 003a 0223     		movs	r3, #2
 2055 003c 2377     		strb	r3, [r4, #28]
 2056 003e 8369     		ldr	r3, [r0, #24]
 2057 0040 002B     		cmp	r3, #0
 2058 0042 EBD1     		bne	.L228
 2059 0044 0123     		movs	r3, #1
 2060 0046 84F83F30 		strb	r3, [r4, #63]
 2061 004a E7E7     		b	.L228
 2062              	.L234:
 2063 004c 0423     		movs	r3, #4
 2064 004e 2377     		strb	r3, [r4, #28]
 2065 0050 8369     		ldr	r3, [r0, #24]
 2066 0052 002B     		cmp	r3, #0
 2067 0054 E2D1     		bne	.L228
 2068 0056 0123     		movs	r3, #1
 2069 0058 84F84030 		strb	r3, [r4, #64]
 2070 005c DEE7     		b	.L228
 2071              	.L235:
 2072 005e 0823     		movs	r3, #8
 2073 0060 2377     		strb	r3, [r4, #28]
 2074 0062 8369     		ldr	r3, [r0, #24]
 2075 0064 002B     		cmp	r3, #0
 2076 0066 D9D1     		bne	.L228
 2077 0068 0123     		movs	r3, #1
 2078 006a 84F84130 		strb	r3, [r4, #65]
 2079 006e D5E7     		b	.L228
 2081              		.section	.text.HAL_TIM_PWM_PulseFinishedHalfCpltCallback,"ax",%progbits
 2082              		.align	1
 2083              		.weak	HAL_TIM_PWM_PulseFinishedHalfCpltCallback
 2084              		.syntax unified
 2085              		.thumb
 2086              		.thumb_func
 2088              	HAL_TIM_PWM_PulseFinishedHalfCpltCallback:
 2089              		@ args = 0, pretend = 0, frame = 0
 2090              		@ frame_needed = 0, uses_anonymous_args = 0
 2091              		@ link register save eliminated.
 2092 0000 7047     		bx	lr
 2094              		.section	.text.TIM_DMADelayPulseHalfCplt,"ax",%progbits
 2095              		.align	1
 2096              		.global	TIM_DMADelayPulseHalfCplt
 2097              		.syntax unified
 2098              		.thumb
 2099              		.thumb_func
 2101              	TIM_DMADelayPulseHalfCplt:
 2102              		@ args = 0, pretend = 0, frame = 0
 2103              		@ frame_needed = 0, uses_anonymous_args = 0
 2104 0000 10B5     		push	{r4, lr}
ARM GAS  /var/folders/t4/6192qx0n3zgdnvcwt906k_mw0000gn/T//cc5P7dKr.s 			page 36


 2105 0002 446A     		ldr	r4, [r0, #36]
 2106 0004 636A     		ldr	r3, [r4, #36]
 2107 0006 8342     		cmp	r3, r0
 2108 0008 0BD0     		beq	.L243
 2109 000a A36A     		ldr	r3, [r4, #40]
 2110 000c 8342     		cmp	r3, r0
 2111 000e 10D0     		beq	.L244
 2112 0010 E36A     		ldr	r3, [r4, #44]
 2113 0012 8342     		cmp	r3, r0
 2114 0014 10D0     		beq	.L245
 2115 0016 236B     		ldr	r3, [r4, #48]
 2116 0018 8342     		cmp	r3, r0
 2117 001a 04D1     		bne	.L239
 2118 001c 0823     		movs	r3, #8
 2119 001e 2377     		strb	r3, [r4, #28]
 2120 0020 01E0     		b	.L239
 2121              	.L243:
 2122 0022 0123     		movs	r3, #1
 2123 0024 2377     		strb	r3, [r4, #28]
 2124              	.L239:
 2125 0026 2046     		mov	r0, r4
 2126 0028 FFF7FEFF 		bl	HAL_TIM_PWM_PulseFinishedHalfCpltCallback
 2127 002c 0023     		movs	r3, #0
 2128 002e 2377     		strb	r3, [r4, #28]
 2129 0030 10BD     		pop	{r4, pc}
 2130              	.L244:
 2131 0032 0223     		movs	r3, #2
 2132 0034 2377     		strb	r3, [r4, #28]
 2133 0036 F6E7     		b	.L239
 2134              	.L245:
 2135 0038 0423     		movs	r3, #4
 2136 003a 2377     		strb	r3, [r4, #28]
 2137 003c F3E7     		b	.L239
 2139              		.section	.text.HAL_TIM_TriggerCallback,"ax",%progbits
 2140              		.align	1
 2141              		.weak	HAL_TIM_TriggerCallback
 2142              		.syntax unified
 2143              		.thumb
 2144              		.thumb_func
 2146              	HAL_TIM_TriggerCallback:
 2147              		@ args = 0, pretend = 0, frame = 0
 2148              		@ frame_needed = 0, uses_anonymous_args = 0
 2149              		@ link register save eliminated.
 2150 0000 7047     		bx	lr
 2152              		.section	.text.HAL_TIM_IRQHandler,"ax",%progbits
 2153              		.align	1
 2154              		.global	HAL_TIM_IRQHandler
 2155              		.syntax unified
 2156              		.thumb
 2157              		.thumb_func
 2159              	HAL_TIM_IRQHandler:
 2160              		@ args = 0, pretend = 0, frame = 0
 2161              		@ frame_needed = 0, uses_anonymous_args = 0
 2162 0000 70B5     		push	{r4, r5, r6, lr}
 2163 0002 0446     		mov	r4, r0
 2164 0004 0368     		ldr	r3, [r0]
 2165 0006 DE68     		ldr	r6, [r3, #12]
ARM GAS  /var/folders/t4/6192qx0n3zgdnvcwt906k_mw0000gn/T//cc5P7dKr.s 			page 37


 2166 0008 1D69     		ldr	r5, [r3, #16]
 2167 000a 15F0020F 		tst	r5, #2
 2168 000e 10D0     		beq	.L248
 2169 0010 16F0020F 		tst	r6, #2
 2170 0014 0DD0     		beq	.L248
 2171 0016 6FF00202 		mvn	r2, #2
 2172 001a 1A61     		str	r2, [r3, #16]
 2173 001c 0123     		movs	r3, #1
 2174 001e 0377     		strb	r3, [r0, #28]
 2175 0020 0368     		ldr	r3, [r0]
 2176 0022 9B69     		ldr	r3, [r3, #24]
 2177 0024 13F0030F 		tst	r3, #3
 2178 0028 5ED0     		beq	.L249
 2179 002a FFF7FEFF 		bl	HAL_TIM_IC_CaptureCallback
 2180              	.L250:
 2181 002e 0023     		movs	r3, #0
 2182 0030 2377     		strb	r3, [r4, #28]
 2183              	.L248:
 2184 0032 15F0040F 		tst	r5, #4
 2185 0036 12D0     		beq	.L251
 2186 0038 16F0040F 		tst	r6, #4
 2187 003c 0FD0     		beq	.L251
 2188 003e 2368     		ldr	r3, [r4]
 2189 0040 6FF00402 		mvn	r2, #4
 2190 0044 1A61     		str	r2, [r3, #16]
 2191 0046 0223     		movs	r3, #2
 2192 0048 2377     		strb	r3, [r4, #28]
 2193 004a 2368     		ldr	r3, [r4]
 2194 004c 9B69     		ldr	r3, [r3, #24]
 2195 004e 13F4407F 		tst	r3, #768
 2196 0052 4FD0     		beq	.L252
 2197 0054 2046     		mov	r0, r4
 2198 0056 FFF7FEFF 		bl	HAL_TIM_IC_CaptureCallback
 2199              	.L253:
 2200 005a 0023     		movs	r3, #0
 2201 005c 2377     		strb	r3, [r4, #28]
 2202              	.L251:
 2203 005e 15F0080F 		tst	r5, #8
 2204 0062 12D0     		beq	.L254
 2205 0064 16F0080F 		tst	r6, #8
 2206 0068 0FD0     		beq	.L254
 2207 006a 2368     		ldr	r3, [r4]
 2208 006c 6FF00802 		mvn	r2, #8
 2209 0070 1A61     		str	r2, [r3, #16]
 2210 0072 0423     		movs	r3, #4
 2211 0074 2377     		strb	r3, [r4, #28]
 2212 0076 2368     		ldr	r3, [r4]
 2213 0078 DB69     		ldr	r3, [r3, #28]
 2214 007a 13F0030F 		tst	r3, #3
 2215 007e 40D0     		beq	.L255
 2216 0080 2046     		mov	r0, r4
 2217 0082 FFF7FEFF 		bl	HAL_TIM_IC_CaptureCallback
 2218              	.L256:
 2219 0086 0023     		movs	r3, #0
 2220 0088 2377     		strb	r3, [r4, #28]
 2221              	.L254:
 2222 008a 15F0100F 		tst	r5, #16
ARM GAS  /var/folders/t4/6192qx0n3zgdnvcwt906k_mw0000gn/T//cc5P7dKr.s 			page 38


 2223 008e 12D0     		beq	.L257
 2224 0090 16F0100F 		tst	r6, #16
 2225 0094 0FD0     		beq	.L257
 2226 0096 2368     		ldr	r3, [r4]
 2227 0098 6FF01002 		mvn	r2, #16
 2228 009c 1A61     		str	r2, [r3, #16]
 2229 009e 0823     		movs	r3, #8
 2230 00a0 2377     		strb	r3, [r4, #28]
 2231 00a2 2368     		ldr	r3, [r4]
 2232 00a4 DB69     		ldr	r3, [r3, #28]
 2233 00a6 13F4407F 		tst	r3, #768
 2234 00aa 31D0     		beq	.L258
 2235 00ac 2046     		mov	r0, r4
 2236 00ae FFF7FEFF 		bl	HAL_TIM_IC_CaptureCallback
 2237              	.L259:
 2238 00b2 0023     		movs	r3, #0
 2239 00b4 2377     		strb	r3, [r4, #28]
 2240              	.L257:
 2241 00b6 15F0010F 		tst	r5, #1
 2242 00ba 02D0     		beq	.L260
 2243 00bc 16F0010F 		tst	r6, #1
 2244 00c0 2DD1     		bne	.L265
 2245              	.L260:
 2246 00c2 15F0800F 		tst	r5, #128
 2247 00c6 02D0     		beq	.L261
 2248 00c8 16F0800F 		tst	r6, #128
 2249 00cc 2FD1     		bne	.L266
 2250              	.L261:
 2251 00ce 15F0400F 		tst	r5, #64
 2252 00d2 02D0     		beq	.L262
 2253 00d4 16F0400F 		tst	r6, #64
 2254 00d8 31D1     		bne	.L267
 2255              	.L262:
 2256 00da 15F0200F 		tst	r5, #32
 2257 00de 02D0     		beq	.L247
 2258 00e0 16F0200F 		tst	r6, #32
 2259 00e4 33D1     		bne	.L268
 2260              	.L247:
 2261 00e6 70BD     		pop	{r4, r5, r6, pc}
 2262              	.L249:
 2263 00e8 FFF7FEFF 		bl	HAL_TIM_OC_DelayElapsedCallback
 2264 00ec 2046     		mov	r0, r4
 2265 00ee FFF7FEFF 		bl	HAL_TIM_PWM_PulseFinishedCallback
 2266 00f2 9CE7     		b	.L250
 2267              	.L252:
 2268 00f4 2046     		mov	r0, r4
 2269 00f6 FFF7FEFF 		bl	HAL_TIM_OC_DelayElapsedCallback
 2270 00fa 2046     		mov	r0, r4
 2271 00fc FFF7FEFF 		bl	HAL_TIM_PWM_PulseFinishedCallback
 2272 0100 ABE7     		b	.L253
 2273              	.L255:
 2274 0102 2046     		mov	r0, r4
 2275 0104 FFF7FEFF 		bl	HAL_TIM_OC_DelayElapsedCallback
 2276 0108 2046     		mov	r0, r4
 2277 010a FFF7FEFF 		bl	HAL_TIM_PWM_PulseFinishedCallback
 2278 010e BAE7     		b	.L256
 2279              	.L258:
ARM GAS  /var/folders/t4/6192qx0n3zgdnvcwt906k_mw0000gn/T//cc5P7dKr.s 			page 39


 2280 0110 2046     		mov	r0, r4
 2281 0112 FFF7FEFF 		bl	HAL_TIM_OC_DelayElapsedCallback
 2282 0116 2046     		mov	r0, r4
 2283 0118 FFF7FEFF 		bl	HAL_TIM_PWM_PulseFinishedCallback
 2284 011c C9E7     		b	.L259
 2285              	.L265:
 2286 011e 2368     		ldr	r3, [r4]
 2287 0120 6FF00102 		mvn	r2, #1
 2288 0124 1A61     		str	r2, [r3, #16]
 2289 0126 2046     		mov	r0, r4
 2290 0128 FFF7FEFF 		bl	HAL_TIM_PeriodElapsedCallback
 2291 012c C9E7     		b	.L260
 2292              	.L266:
 2293 012e 2368     		ldr	r3, [r4]
 2294 0130 6FF08002 		mvn	r2, #128
 2295 0134 1A61     		str	r2, [r3, #16]
 2296 0136 2046     		mov	r0, r4
 2297 0138 FFF7FEFF 		bl	HAL_TIMEx_BreakCallback
 2298 013c C7E7     		b	.L261
 2299              	.L267:
 2300 013e 2368     		ldr	r3, [r4]
 2301 0140 6FF04002 		mvn	r2, #64
 2302 0144 1A61     		str	r2, [r3, #16]
 2303 0146 2046     		mov	r0, r4
 2304 0148 FFF7FEFF 		bl	HAL_TIM_TriggerCallback
 2305 014c C5E7     		b	.L262
 2306              	.L268:
 2307 014e 2368     		ldr	r3, [r4]
 2308 0150 6FF02002 		mvn	r2, #32
 2309 0154 1A61     		str	r2, [r3, #16]
 2310 0156 2046     		mov	r0, r4
 2311 0158 FFF7FEFF 		bl	HAL_TIMEx_CommutCallback
 2312 015c C3E7     		b	.L247
 2314              		.section	.text.TIM_DMATriggerCplt,"ax",%progbits
 2315              		.align	1
 2316              		.syntax unified
 2317              		.thumb
 2318              		.thumb_func
 2320              	TIM_DMATriggerCplt:
 2321              		@ args = 0, pretend = 0, frame = 0
 2322              		@ frame_needed = 0, uses_anonymous_args = 0
 2323 0000 08B5     		push	{r3, lr}
 2324 0002 406A     		ldr	r0, [r0, #36]
 2325 0004 836B     		ldr	r3, [r0, #56]
 2326 0006 9B69     		ldr	r3, [r3, #24]
 2327 0008 13B9     		cbnz	r3, .L270
 2328 000a 0123     		movs	r3, #1
 2329 000c 80F83D30 		strb	r3, [r0, #61]
 2330              	.L270:
 2331 0010 FFF7FEFF 		bl	HAL_TIM_TriggerCallback
 2332 0014 08BD     		pop	{r3, pc}
 2334              		.section	.text.HAL_TIM_TriggerHalfCpltCallback,"ax",%progbits
 2335              		.align	1
 2336              		.weak	HAL_TIM_TriggerHalfCpltCallback
 2337              		.syntax unified
 2338              		.thumb
 2339              		.thumb_func
ARM GAS  /var/folders/t4/6192qx0n3zgdnvcwt906k_mw0000gn/T//cc5P7dKr.s 			page 40


 2341              	HAL_TIM_TriggerHalfCpltCallback:
 2342              		@ args = 0, pretend = 0, frame = 0
 2343              		@ frame_needed = 0, uses_anonymous_args = 0
 2344              		@ link register save eliminated.
 2345 0000 7047     		bx	lr
 2347              		.section	.text.TIM_DMATriggerHalfCplt,"ax",%progbits
 2348              		.align	1
 2349              		.syntax unified
 2350              		.thumb
 2351              		.thumb_func
 2353              	TIM_DMATriggerHalfCplt:
 2354              		@ args = 0, pretend = 0, frame = 0
 2355              		@ frame_needed = 0, uses_anonymous_args = 0
 2356 0000 08B5     		push	{r3, lr}
 2357 0002 406A     		ldr	r0, [r0, #36]
 2358 0004 FFF7FEFF 		bl	HAL_TIM_TriggerHalfCpltCallback
 2359 0008 08BD     		pop	{r3, pc}
 2361              		.section	.text.HAL_TIM_ErrorCallback,"ax",%progbits
 2362              		.align	1
 2363              		.weak	HAL_TIM_ErrorCallback
 2364              		.syntax unified
 2365              		.thumb
 2366              		.thumb_func
 2368              	HAL_TIM_ErrorCallback:
 2369              		@ args = 0, pretend = 0, frame = 0
 2370              		@ frame_needed = 0, uses_anonymous_args = 0
 2371              		@ link register save eliminated.
 2372 0000 7047     		bx	lr
 2374              		.section	.text.TIM_DMAError,"ax",%progbits
 2375              		.align	1
 2376              		.global	TIM_DMAError
 2377              		.syntax unified
 2378              		.thumb
 2379              		.thumb_func
 2381              	TIM_DMAError:
 2382              		@ args = 0, pretend = 0, frame = 0
 2383              		@ frame_needed = 0, uses_anonymous_args = 0
 2384 0000 10B5     		push	{r4, lr}
 2385 0002 446A     		ldr	r4, [r0, #36]
 2386 0004 636A     		ldr	r3, [r4, #36]
 2387 0006 8342     		cmp	r3, r0
 2388 0008 0CD0     		beq	.L283
 2389 000a A36A     		ldr	r3, [r4, #40]
 2390 000c 8342     		cmp	r3, r0
 2391 000e 13D0     		beq	.L284
 2392 0010 E36A     		ldr	r3, [r4, #44]
 2393 0012 8342     		cmp	r3, r0
 2394 0014 16D0     		beq	.L285
 2395 0016 236B     		ldr	r3, [r4, #48]
 2396 0018 8342     		cmp	r3, r0
 2397 001a 19D0     		beq	.L286
 2398 001c 0123     		movs	r3, #1
 2399 001e 84F83D30 		strb	r3, [r4, #61]
 2400 0022 03E0     		b	.L278
 2401              	.L283:
 2402 0024 0123     		movs	r3, #1
 2403 0026 2377     		strb	r3, [r4, #28]
ARM GAS  /var/folders/t4/6192qx0n3zgdnvcwt906k_mw0000gn/T//cc5P7dKr.s 			page 41


 2404 0028 84F83E30 		strb	r3, [r4, #62]
 2405              	.L278:
 2406 002c 2046     		mov	r0, r4
 2407 002e FFF7FEFF 		bl	HAL_TIM_ErrorCallback
 2408 0032 0023     		movs	r3, #0
 2409 0034 2377     		strb	r3, [r4, #28]
 2410 0036 10BD     		pop	{r4, pc}
 2411              	.L284:
 2412 0038 0223     		movs	r3, #2
 2413 003a 2377     		strb	r3, [r4, #28]
 2414 003c 0123     		movs	r3, #1
 2415 003e 84F83F30 		strb	r3, [r4, #63]
 2416 0042 F3E7     		b	.L278
 2417              	.L285:
 2418 0044 0423     		movs	r3, #4
 2419 0046 2377     		strb	r3, [r4, #28]
 2420 0048 0123     		movs	r3, #1
 2421 004a 84F84030 		strb	r3, [r4, #64]
 2422 004e EDE7     		b	.L278
 2423              	.L286:
 2424 0050 0823     		movs	r3, #8
 2425 0052 2377     		strb	r3, [r4, #28]
 2426 0054 0123     		movs	r3, #1
 2427 0056 84F84130 		strb	r3, [r4, #65]
 2428 005a E7E7     		b	.L278
 2430              		.section	.text.HAL_TIM_Base_GetState,"ax",%progbits
 2431              		.align	1
 2432              		.global	HAL_TIM_Base_GetState
 2433              		.syntax unified
 2434              		.thumb
 2435              		.thumb_func
 2437              	HAL_TIM_Base_GetState:
 2438              		@ args = 0, pretend = 0, frame = 0
 2439              		@ frame_needed = 0, uses_anonymous_args = 0
 2440              		@ link register save eliminated.
 2441 0000 90F83D00 		ldrb	r0, [r0, #61]	@ zero_extendqisi2
 2442 0004 7047     		bx	lr
 2444              		.section	.text.HAL_TIM_OC_GetState,"ax",%progbits
 2445              		.align	1
 2446              		.global	HAL_TIM_OC_GetState
 2447              		.syntax unified
 2448              		.thumb
 2449              		.thumb_func
 2451              	HAL_TIM_OC_GetState:
 2452              		@ args = 0, pretend = 0, frame = 0
 2453              		@ frame_needed = 0, uses_anonymous_args = 0
 2454              		@ link register save eliminated.
 2455 0000 90F83D00 		ldrb	r0, [r0, #61]	@ zero_extendqisi2
 2456 0004 7047     		bx	lr
 2458              		.section	.text.HAL_TIM_PWM_GetState,"ax",%progbits
 2459              		.align	1
 2460              		.global	HAL_TIM_PWM_GetState
 2461              		.syntax unified
 2462              		.thumb
 2463              		.thumb_func
 2465              	HAL_TIM_PWM_GetState:
 2466              		@ args = 0, pretend = 0, frame = 0
ARM GAS  /var/folders/t4/6192qx0n3zgdnvcwt906k_mw0000gn/T//cc5P7dKr.s 			page 42


 2467              		@ frame_needed = 0, uses_anonymous_args = 0
 2468              		@ link register save eliminated.
 2469 0000 90F83D00 		ldrb	r0, [r0, #61]	@ zero_extendqisi2
 2470 0004 7047     		bx	lr
 2472              		.section	.text.HAL_TIM_IC_GetState,"ax",%progbits
 2473              		.align	1
 2474              		.global	HAL_TIM_IC_GetState
 2475              		.syntax unified
 2476              		.thumb
 2477              		.thumb_func
 2479              	HAL_TIM_IC_GetState:
 2480              		@ args = 0, pretend = 0, frame = 0
 2481              		@ frame_needed = 0, uses_anonymous_args = 0
 2482              		@ link register save eliminated.
 2483 0000 90F83D00 		ldrb	r0, [r0, #61]	@ zero_extendqisi2
 2484 0004 7047     		bx	lr
 2486              		.section	.text.HAL_TIM_OnePulse_GetState,"ax",%progbits
 2487              		.align	1
 2488              		.global	HAL_TIM_OnePulse_GetState
 2489              		.syntax unified
 2490              		.thumb
 2491              		.thumb_func
 2493              	HAL_TIM_OnePulse_GetState:
 2494              		@ args = 0, pretend = 0, frame = 0
 2495              		@ frame_needed = 0, uses_anonymous_args = 0
 2496              		@ link register save eliminated.
 2497 0000 90F83D00 		ldrb	r0, [r0, #61]	@ zero_extendqisi2
 2498 0004 7047     		bx	lr
 2500              		.section	.text.HAL_TIM_Encoder_GetState,"ax",%progbits
 2501              		.align	1
 2502              		.global	HAL_TIM_Encoder_GetState
 2503              		.syntax unified
 2504              		.thumb
 2505              		.thumb_func
 2507              	HAL_TIM_Encoder_GetState:
 2508              		@ args = 0, pretend = 0, frame = 0
 2509              		@ frame_needed = 0, uses_anonymous_args = 0
 2510              		@ link register save eliminated.
 2511 0000 90F83D00 		ldrb	r0, [r0, #61]	@ zero_extendqisi2
 2512 0004 7047     		bx	lr
 2514              		.section	.text.HAL_TIM_GetActiveChannel,"ax",%progbits
 2515              		.align	1
 2516              		.global	HAL_TIM_GetActiveChannel
 2517              		.syntax unified
 2518              		.thumb
 2519              		.thumb_func
 2521              	HAL_TIM_GetActiveChannel:
 2522              		@ args = 0, pretend = 0, frame = 0
 2523              		@ frame_needed = 0, uses_anonymous_args = 0
 2524              		@ link register save eliminated.
 2525 0000 007F     		ldrb	r0, [r0, #28]	@ zero_extendqisi2
 2526 0002 7047     		bx	lr
 2528              		.section	.text.HAL_TIM_GetChannelState,"ax",%progbits
 2529              		.align	1
 2530              		.global	HAL_TIM_GetChannelState
 2531              		.syntax unified
 2532              		.thumb
ARM GAS  /var/folders/t4/6192qx0n3zgdnvcwt906k_mw0000gn/T//cc5P7dKr.s 			page 43


 2533              		.thumb_func
 2535              	HAL_TIM_GetChannelState:
 2536              		@ args = 0, pretend = 0, frame = 0
 2537              		@ frame_needed = 0, uses_anonymous_args = 0
 2538              		@ link register save eliminated.
 2539 0000 19B9     		cbnz	r1, .L295
 2540 0002 90F83E00 		ldrb	r0, [r0, #62]	@ zero_extendqisi2
 2541 0006 C0B2     		uxtb	r0, r0
 2542 0008 7047     		bx	lr
 2543              	.L295:
 2544 000a 0429     		cmp	r1, #4
 2545 000c 05D0     		beq	.L299
 2546 000e 0829     		cmp	r1, #8
 2547 0010 07D0     		beq	.L300
 2548 0012 90F84100 		ldrb	r0, [r0, #65]	@ zero_extendqisi2
 2549 0016 C0B2     		uxtb	r0, r0
 2550 0018 7047     		bx	lr
 2551              	.L299:
 2552 001a 90F83F00 		ldrb	r0, [r0, #63]	@ zero_extendqisi2
 2553 001e C0B2     		uxtb	r0, r0
 2554 0020 7047     		bx	lr
 2555              	.L300:
 2556 0022 90F84000 		ldrb	r0, [r0, #64]	@ zero_extendqisi2
 2557 0026 C0B2     		uxtb	r0, r0
 2558 0028 7047     		bx	lr
 2560              		.section	.text.HAL_TIM_DMABurstState,"ax",%progbits
 2561              		.align	1
 2562              		.global	HAL_TIM_DMABurstState
 2563              		.syntax unified
 2564              		.thumb
 2565              		.thumb_func
 2567              	HAL_TIM_DMABurstState:
 2568              		@ args = 0, pretend = 0, frame = 0
 2569              		@ frame_needed = 0, uses_anonymous_args = 0
 2570              		@ link register save eliminated.
 2571 0000 90F84600 		ldrb	r0, [r0, #70]	@ zero_extendqisi2
 2572 0004 7047     		bx	lr
 2574              		.section	.text.TIM_Base_SetConfig,"ax",%progbits
 2575              		.align	1
 2576              		.global	TIM_Base_SetConfig
 2577              		.syntax unified
 2578              		.thumb
 2579              		.thumb_func
 2581              	TIM_Base_SetConfig:
 2582              		@ args = 0, pretend = 0, frame = 0
 2583              		@ frame_needed = 0, uses_anonymous_args = 0
 2584              		@ link register save eliminated.
 2585 0000 0368     		ldr	r3, [r0]
 2586 0002 2A4A     		ldr	r2, .L310
 2587 0004 9042     		cmp	r0, r2
 2588 0006 0AD0     		beq	.L303
 2589 0008 B0F1804F 		cmp	r0, #1073741824
 2590 000c 07D0     		beq	.L303
 2591 000e A2F59432 		sub	r2, r2, #75776
 2592 0012 9042     		cmp	r0, r2
 2593 0014 03D0     		beq	.L303
 2594 0016 02F58062 		add	r2, r2, #1024
ARM GAS  /var/folders/t4/6192qx0n3zgdnvcwt906k_mw0000gn/T//cc5P7dKr.s 			page 44


 2595 001a 9042     		cmp	r0, r2
 2596 001c 03D1     		bne	.L304
 2597              	.L303:
 2598 001e 23F07003 		bic	r3, r3, #112
 2599 0022 4A68     		ldr	r2, [r1, #4]
 2600 0024 1343     		orrs	r3, r3, r2
 2601              	.L304:
 2602 0026 214A     		ldr	r2, .L310
 2603 0028 9042     		cmp	r0, r2
 2604 002a 16D0     		beq	.L305
 2605 002c B0F1804F 		cmp	r0, #1073741824
 2606 0030 13D0     		beq	.L305
 2607 0032 A2F59432 		sub	r2, r2, #75776
 2608 0036 9042     		cmp	r0, r2
 2609 0038 0FD0     		beq	.L305
 2610 003a 02F58062 		add	r2, r2, #1024
 2611 003e 9042     		cmp	r0, r2
 2612 0040 0BD0     		beq	.L305
 2613 0042 02F59C32 		add	r2, r2, #79872
 2614 0046 9042     		cmp	r0, r2
 2615 0048 07D0     		beq	.L305
 2616 004a 02F58062 		add	r2, r2, #1024
 2617 004e 9042     		cmp	r0, r2
 2618 0050 03D0     		beq	.L305
 2619 0052 02F58062 		add	r2, r2, #1024
 2620 0056 9042     		cmp	r0, r2
 2621 0058 03D1     		bne	.L306
 2622              	.L305:
 2623 005a 23F44073 		bic	r3, r3, #768
 2624 005e CA68     		ldr	r2, [r1, #12]
 2625 0060 1343     		orrs	r3, r3, r2
 2626              	.L306:
 2627 0062 23F08003 		bic	r3, r3, #128
 2628 0066 4A69     		ldr	r2, [r1, #20]
 2629 0068 1343     		orrs	r3, r3, r2
 2630 006a 0360     		str	r3, [r0]
 2631 006c 8B68     		ldr	r3, [r1, #8]
 2632 006e C362     		str	r3, [r0, #44]
 2633 0070 0B68     		ldr	r3, [r1]
 2634 0072 8362     		str	r3, [r0, #40]
 2635 0074 0D4B     		ldr	r3, .L310
 2636 0076 9842     		cmp	r0, r3
 2637 0078 0BD0     		beq	.L307
 2638 007a 03F5A053 		add	r3, r3, #5120
 2639 007e 9842     		cmp	r0, r3
 2640 0080 07D0     		beq	.L307
 2641 0082 03F58063 		add	r3, r3, #1024
 2642 0086 9842     		cmp	r0, r3
 2643 0088 03D0     		beq	.L307
 2644 008a 03F58063 		add	r3, r3, #1024
 2645 008e 9842     		cmp	r0, r3
 2646 0090 01D1     		bne	.L308
 2647              	.L307:
 2648 0092 0B69     		ldr	r3, [r1, #16]
 2649 0094 0363     		str	r3, [r0, #48]
 2650              	.L308:
 2651 0096 0123     		movs	r3, #1
ARM GAS  /var/folders/t4/6192qx0n3zgdnvcwt906k_mw0000gn/T//cc5P7dKr.s 			page 45


 2652 0098 4361     		str	r3, [r0, #20]
 2653 009a 0369     		ldr	r3, [r0, #16]
 2654 009c 13F0010F 		tst	r3, #1
 2655 00a0 03D0     		beq	.L302
 2656 00a2 0369     		ldr	r3, [r0, #16]
 2657 00a4 23F00103 		bic	r3, r3, #1
 2658 00a8 0361     		str	r3, [r0, #16]
 2659              	.L302:
 2660 00aa 7047     		bx	lr
 2661              	.L311:
 2662              		.align	2
 2663              	.L310:
 2664 00ac 002C0140 		.word	1073818624
 2666              		.section	.text.HAL_TIM_Base_Init,"ax",%progbits
 2667              		.align	1
 2668              		.global	HAL_TIM_Base_Init
 2669              		.syntax unified
 2670              		.thumb
 2671              		.thumb_func
 2673              	HAL_TIM_Base_Init:
 2674              		@ args = 0, pretend = 0, frame = 0
 2675              		@ frame_needed = 0, uses_anonymous_args = 0
 2676 0000 40B3     		cbz	r0, .L315
 2677 0002 10B5     		push	{r4, lr}
 2678 0004 0446     		mov	r4, r0
 2679 0006 90F83D30 		ldrb	r3, [r0, #61]	@ zero_extendqisi2
 2680 000a F3B1     		cbz	r3, .L320
 2681              	.L314:
 2682 000c 0223     		movs	r3, #2
 2683 000e 84F83D30 		strb	r3, [r4, #61]
 2684 0012 2146     		mov	r1, r4
 2685 0014 51F8040B 		ldr	r0, [r1], #4
 2686 0018 FFF7FEFF 		bl	TIM_Base_SetConfig
 2687 001c 0123     		movs	r3, #1
 2688 001e 84F84630 		strb	r3, [r4, #70]
 2689 0022 84F83E30 		strb	r3, [r4, #62]
 2690 0026 84F83F30 		strb	r3, [r4, #63]
 2691 002a 84F84030 		strb	r3, [r4, #64]
 2692 002e 84F84130 		strb	r3, [r4, #65]
 2693 0032 84F84230 		strb	r3, [r4, #66]
 2694 0036 84F84330 		strb	r3, [r4, #67]
 2695 003a 84F84430 		strb	r3, [r4, #68]
 2696 003e 84F84530 		strb	r3, [r4, #69]
 2697 0042 84F83D30 		strb	r3, [r4, #61]
 2698 0046 0020     		movs	r0, #0
 2699 0048 10BD     		pop	{r4, pc}
 2700              	.L320:
 2701 004a 80F83C30 		strb	r3, [r0, #60]
 2702 004e FFF7FEFF 		bl	HAL_TIM_Base_MspInit
 2703 0052 DBE7     		b	.L314
 2704              	.L315:
 2705 0054 0120     		movs	r0, #1
 2706 0056 7047     		bx	lr
 2708              		.section	.text.HAL_TIM_OC_Init,"ax",%progbits
 2709              		.align	1
 2710              		.global	HAL_TIM_OC_Init
 2711              		.syntax unified
ARM GAS  /var/folders/t4/6192qx0n3zgdnvcwt906k_mw0000gn/T//cc5P7dKr.s 			page 46


 2712              		.thumb
 2713              		.thumb_func
 2715              	HAL_TIM_OC_Init:
 2716              		@ args = 0, pretend = 0, frame = 0
 2717              		@ frame_needed = 0, uses_anonymous_args = 0
 2718 0000 40B3     		cbz	r0, .L324
 2719 0002 10B5     		push	{r4, lr}
 2720 0004 0446     		mov	r4, r0
 2721 0006 90F83D30 		ldrb	r3, [r0, #61]	@ zero_extendqisi2
 2722 000a F3B1     		cbz	r3, .L329
 2723              	.L323:
 2724 000c 0223     		movs	r3, #2
 2725 000e 84F83D30 		strb	r3, [r4, #61]
 2726 0012 2146     		mov	r1, r4
 2727 0014 51F8040B 		ldr	r0, [r1], #4
 2728 0018 FFF7FEFF 		bl	TIM_Base_SetConfig
 2729 001c 0123     		movs	r3, #1
 2730 001e 84F84630 		strb	r3, [r4, #70]
 2731 0022 84F83E30 		strb	r3, [r4, #62]
 2732 0026 84F83F30 		strb	r3, [r4, #63]
 2733 002a 84F84030 		strb	r3, [r4, #64]
 2734 002e 84F84130 		strb	r3, [r4, #65]
 2735 0032 84F84230 		strb	r3, [r4, #66]
 2736 0036 84F84330 		strb	r3, [r4, #67]
 2737 003a 84F84430 		strb	r3, [r4, #68]
 2738 003e 84F84530 		strb	r3, [r4, #69]
 2739 0042 84F83D30 		strb	r3, [r4, #61]
 2740 0046 0020     		movs	r0, #0
 2741 0048 10BD     		pop	{r4, pc}
 2742              	.L329:
 2743 004a 80F83C30 		strb	r3, [r0, #60]
 2744 004e FFF7FEFF 		bl	HAL_TIM_OC_MspInit
 2745 0052 DBE7     		b	.L323
 2746              	.L324:
 2747 0054 0120     		movs	r0, #1
 2748 0056 7047     		bx	lr
 2750              		.section	.text.HAL_TIM_PWM_Init,"ax",%progbits
 2751              		.align	1
 2752              		.global	HAL_TIM_PWM_Init
 2753              		.syntax unified
 2754              		.thumb
 2755              		.thumb_func
 2757              	HAL_TIM_PWM_Init:
 2758              		@ args = 0, pretend = 0, frame = 0
 2759              		@ frame_needed = 0, uses_anonymous_args = 0
 2760 0000 40B3     		cbz	r0, .L333
 2761 0002 10B5     		push	{r4, lr}
 2762 0004 0446     		mov	r4, r0
 2763 0006 90F83D30 		ldrb	r3, [r0, #61]	@ zero_extendqisi2
 2764 000a F3B1     		cbz	r3, .L338
 2765              	.L332:
 2766 000c 0223     		movs	r3, #2
 2767 000e 84F83D30 		strb	r3, [r4, #61]
 2768 0012 2146     		mov	r1, r4
 2769 0014 51F8040B 		ldr	r0, [r1], #4
 2770 0018 FFF7FEFF 		bl	TIM_Base_SetConfig
 2771 001c 0123     		movs	r3, #1
ARM GAS  /var/folders/t4/6192qx0n3zgdnvcwt906k_mw0000gn/T//cc5P7dKr.s 			page 47


 2772 001e 84F84630 		strb	r3, [r4, #70]
 2773 0022 84F83E30 		strb	r3, [r4, #62]
 2774 0026 84F83F30 		strb	r3, [r4, #63]
 2775 002a 84F84030 		strb	r3, [r4, #64]
 2776 002e 84F84130 		strb	r3, [r4, #65]
 2777 0032 84F84230 		strb	r3, [r4, #66]
 2778 0036 84F84330 		strb	r3, [r4, #67]
 2779 003a 84F84430 		strb	r3, [r4, #68]
 2780 003e 84F84530 		strb	r3, [r4, #69]
 2781 0042 84F83D30 		strb	r3, [r4, #61]
 2782 0046 0020     		movs	r0, #0
 2783 0048 10BD     		pop	{r4, pc}
 2784              	.L338:
 2785 004a 80F83C30 		strb	r3, [r0, #60]
 2786 004e FFF7FEFF 		bl	HAL_TIM_PWM_MspInit
 2787 0052 DBE7     		b	.L332
 2788              	.L333:
 2789 0054 0120     		movs	r0, #1
 2790 0056 7047     		bx	lr
 2792              		.section	.text.HAL_TIM_IC_Init,"ax",%progbits
 2793              		.align	1
 2794              		.global	HAL_TIM_IC_Init
 2795              		.syntax unified
 2796              		.thumb
 2797              		.thumb_func
 2799              	HAL_TIM_IC_Init:
 2800              		@ args = 0, pretend = 0, frame = 0
 2801              		@ frame_needed = 0, uses_anonymous_args = 0
 2802 0000 40B3     		cbz	r0, .L342
 2803 0002 10B5     		push	{r4, lr}
 2804 0004 0446     		mov	r4, r0
 2805 0006 90F83D30 		ldrb	r3, [r0, #61]	@ zero_extendqisi2
 2806 000a F3B1     		cbz	r3, .L347
 2807              	.L341:
 2808 000c 0223     		movs	r3, #2
 2809 000e 84F83D30 		strb	r3, [r4, #61]
 2810 0012 2146     		mov	r1, r4
 2811 0014 51F8040B 		ldr	r0, [r1], #4
 2812 0018 FFF7FEFF 		bl	TIM_Base_SetConfig
 2813 001c 0123     		movs	r3, #1
 2814 001e 84F84630 		strb	r3, [r4, #70]
 2815 0022 84F83E30 		strb	r3, [r4, #62]
 2816 0026 84F83F30 		strb	r3, [r4, #63]
 2817 002a 84F84030 		strb	r3, [r4, #64]
 2818 002e 84F84130 		strb	r3, [r4, #65]
 2819 0032 84F84230 		strb	r3, [r4, #66]
 2820 0036 84F84330 		strb	r3, [r4, #67]
 2821 003a 84F84430 		strb	r3, [r4, #68]
 2822 003e 84F84530 		strb	r3, [r4, #69]
 2823 0042 84F83D30 		strb	r3, [r4, #61]
 2824 0046 0020     		movs	r0, #0
 2825 0048 10BD     		pop	{r4, pc}
 2826              	.L347:
 2827 004a 80F83C30 		strb	r3, [r0, #60]
 2828 004e FFF7FEFF 		bl	HAL_TIM_IC_MspInit
 2829 0052 DBE7     		b	.L341
 2830              	.L342:
ARM GAS  /var/folders/t4/6192qx0n3zgdnvcwt906k_mw0000gn/T//cc5P7dKr.s 			page 48


 2831 0054 0120     		movs	r0, #1
 2832 0056 7047     		bx	lr
 2834              		.section	.text.HAL_TIM_OnePulse_Init,"ax",%progbits
 2835              		.align	1
 2836              		.global	HAL_TIM_OnePulse_Init
 2837              		.syntax unified
 2838              		.thumb
 2839              		.thumb_func
 2841              	HAL_TIM_OnePulse_Init:
 2842              		@ args = 0, pretend = 0, frame = 0
 2843              		@ frame_needed = 0, uses_anonymous_args = 0
 2844 0000 50B3     		cbz	r0, .L351
 2845 0002 38B5     		push	{r3, r4, r5, lr}
 2846 0004 0D46     		mov	r5, r1
 2847 0006 0446     		mov	r4, r0
 2848 0008 90F83D30 		ldrb	r3, [r0, #61]	@ zero_extendqisi2
 2849 000c FBB1     		cbz	r3, .L356
 2850              	.L350:
 2851 000e 0223     		movs	r3, #2
 2852 0010 84F83D30 		strb	r3, [r4, #61]
 2853 0014 2146     		mov	r1, r4
 2854 0016 51F8040B 		ldr	r0, [r1], #4
 2855 001a FFF7FEFF 		bl	TIM_Base_SetConfig
 2856 001e 2268     		ldr	r2, [r4]
 2857 0020 1368     		ldr	r3, [r2]
 2858 0022 23F00803 		bic	r3, r3, #8
 2859 0026 1360     		str	r3, [r2]
 2860 0028 2268     		ldr	r2, [r4]
 2861 002a 1368     		ldr	r3, [r2]
 2862 002c 2B43     		orrs	r3, r3, r5
 2863 002e 1360     		str	r3, [r2]
 2864 0030 0123     		movs	r3, #1
 2865 0032 84F84630 		strb	r3, [r4, #70]
 2866 0036 84F83E30 		strb	r3, [r4, #62]
 2867 003a 84F83F30 		strb	r3, [r4, #63]
 2868 003e 84F84230 		strb	r3, [r4, #66]
 2869 0042 84F84330 		strb	r3, [r4, #67]
 2870 0046 84F83D30 		strb	r3, [r4, #61]
 2871 004a 0020     		movs	r0, #0
 2872 004c 38BD     		pop	{r3, r4, r5, pc}
 2873              	.L356:
 2874 004e 80F83C30 		strb	r3, [r0, #60]
 2875 0052 FFF7FEFF 		bl	HAL_TIM_OnePulse_MspInit
 2876 0056 DAE7     		b	.L350
 2877              	.L351:
 2878 0058 0120     		movs	r0, #1
 2879 005a 7047     		bx	lr
 2881              		.section	.text.HAL_TIM_Encoder_Init,"ax",%progbits
 2882              		.align	1
 2883              		.global	HAL_TIM_Encoder_Init
 2884              		.syntax unified
 2885              		.thumb
 2886              		.thumb_func
 2888              	HAL_TIM_Encoder_Init:
 2889              		@ args = 0, pretend = 0, frame = 0
 2890              		@ frame_needed = 0, uses_anonymous_args = 0
 2891 0000 0028     		cmp	r0, #0
ARM GAS  /var/folders/t4/6192qx0n3zgdnvcwt906k_mw0000gn/T//cc5P7dKr.s 			page 49


 2892 0002 56D0     		beq	.L360
 2893 0004 70B5     		push	{r4, r5, r6, lr}
 2894 0006 0D46     		mov	r5, r1
 2895 0008 0446     		mov	r4, r0
 2896 000a 90F83D30 		ldrb	r3, [r0, #61]	@ zero_extendqisi2
 2897 000e 002B     		cmp	r3, #0
 2898 0010 4AD0     		beq	.L365
 2899              	.L359:
 2900 0012 0223     		movs	r3, #2
 2901 0014 84F83D30 		strb	r3, [r4, #61]
 2902 0018 2268     		ldr	r2, [r4]
 2903 001a 9368     		ldr	r3, [r2, #8]
 2904 001c 23F48043 		bic	r3, r3, #16384
 2905 0020 23F00703 		bic	r3, r3, #7
 2906 0024 9360     		str	r3, [r2, #8]
 2907 0026 2146     		mov	r1, r4
 2908 0028 51F8040B 		ldr	r0, [r1], #4
 2909 002c FFF7FEFF 		bl	TIM_Base_SetConfig
 2910 0030 2168     		ldr	r1, [r4]
 2911 0032 8B68     		ldr	r3, [r1, #8]
 2912 0034 8A69     		ldr	r2, [r1, #24]
 2913 0036 0E6A     		ldr	r6, [r1, #32]
 2914 0038 2868     		ldr	r0, [r5]
 2915 003a 1843     		orrs	r0, r0, r3
 2916 003c 22F44072 		bic	r2, r2, #768
 2917 0040 22F00302 		bic	r2, r2, #3
 2918 0044 AB68     		ldr	r3, [r5, #8]
 2919 0046 D5F818C0 		ldr	ip, [r5, #24]
 2920 004a 43EA0C23 		orr	r3, r3, ip, lsl #8
 2921 004e 1343     		orrs	r3, r3, r2
 2922 0050 23F47C43 		bic	r3, r3, #64512
 2923 0054 23F0FC03 		bic	r3, r3, #252
 2924 0058 EA68     		ldr	r2, [r5, #12]
 2925 005a D5F81CC0 		ldr	ip, [r5, #28]
 2926 005e 42EA0C22 		orr	r2, r2, ip, lsl #8
 2927 0062 1A43     		orrs	r2, r2, r3
 2928 0064 2B6A     		ldr	r3, [r5, #32]
 2929 0066 1B03     		lsls	r3, r3, #12
 2930 0068 D5F810C0 		ldr	ip, [r5, #16]
 2931 006c 43EA0C13 		orr	r3, r3, ip, lsl #4
 2932 0070 1343     		orrs	r3, r3, r2
 2933 0072 26F02206 		bic	r6, r6, #34
 2934 0076 6A68     		ldr	r2, [r5, #4]
 2935 0078 6D69     		ldr	r5, [r5, #20]
 2936 007a 42EA0512 		orr	r2, r2, r5, lsl #4
 2937 007e 3243     		orrs	r2, r2, r6
 2938 0080 8860     		str	r0, [r1, #8]
 2939 0082 2168     		ldr	r1, [r4]
 2940 0084 8B61     		str	r3, [r1, #24]
 2941 0086 2368     		ldr	r3, [r4]
 2942 0088 1A62     		str	r2, [r3, #32]
 2943 008a 0123     		movs	r3, #1
 2944 008c 84F84630 		strb	r3, [r4, #70]
 2945 0090 84F83E30 		strb	r3, [r4, #62]
 2946 0094 84F83F30 		strb	r3, [r4, #63]
 2947 0098 84F84230 		strb	r3, [r4, #66]
 2948 009c 84F84330 		strb	r3, [r4, #67]
ARM GAS  /var/folders/t4/6192qx0n3zgdnvcwt906k_mw0000gn/T//cc5P7dKr.s 			page 50


 2949 00a0 84F83D30 		strb	r3, [r4, #61]
 2950 00a4 0020     		movs	r0, #0
 2951 00a6 70BD     		pop	{r4, r5, r6, pc}
 2952              	.L365:
 2953 00a8 80F83C30 		strb	r3, [r0, #60]
 2954 00ac FFF7FEFF 		bl	HAL_TIM_Encoder_MspInit
 2955 00b0 AFE7     		b	.L359
 2956              	.L360:
 2957 00b2 0120     		movs	r0, #1
 2958 00b4 7047     		bx	lr
 2960              		.section	.text.TIM_OC2_SetConfig,"ax",%progbits
 2961              		.align	1
 2962              		.global	TIM_OC2_SetConfig
 2963              		.syntax unified
 2964              		.thumb
 2965              		.thumb_func
 2967              	TIM_OC2_SetConfig:
 2968              		@ args = 0, pretend = 0, frame = 0
 2969              		@ frame_needed = 0, uses_anonymous_args = 0
 2970              		@ link register save eliminated.
 2971 0000 30B4     		push	{r4, r5}
 2972 0002 036A     		ldr	r3, [r0, #32]
 2973 0004 026A     		ldr	r2, [r0, #32]
 2974 0006 22F01002 		bic	r2, r2, #16
 2975 000a 0262     		str	r2, [r0, #32]
 2976 000c 4268     		ldr	r2, [r0, #4]
 2977 000e 8469     		ldr	r4, [r0, #24]
 2978 0010 24F4E64C 		bic	ip, r4, #29440
 2979 0014 0C68     		ldr	r4, [r1]
 2980 0016 4CEA0424 		orr	r4, ip, r4, lsl #8
 2981 001a 23F02003 		bic	r3, r3, #32
 2982 001e 8D68     		ldr	r5, [r1, #8]
 2983 0020 43EA0513 		orr	r3, r3, r5, lsl #4
 2984 0024 124D     		ldr	r5, .L372
 2985 0026 A842     		cmp	r0, r5
 2986 0028 0BD0     		beq	.L371
 2987 002a 124D     		ldr	r5, .L372+4
 2988 002c A842     		cmp	r0, r5
 2989 002e 0FD0     		beq	.L368
 2990 0030 05F58065 		add	r5, r5, #1024
 2991 0034 A842     		cmp	r0, r5
 2992 0036 0BD0     		beq	.L368
 2993 0038 05F58065 		add	r5, r5, #1024
 2994 003c A842     		cmp	r0, r5
 2995 003e 0FD1     		bne	.L369
 2996 0040 06E0     		b	.L368
 2997              	.L371:
 2998 0042 23F08003 		bic	r3, r3, #128
 2999 0046 CD68     		ldr	r5, [r1, #12]
 3000 0048 43EA0513 		orr	r3, r3, r5, lsl #4
 3001 004c 23F04003 		bic	r3, r3, #64
 3002              	.L368:
 3003 0050 22F44062 		bic	r2, r2, #3072
 3004 0054 4D69     		ldr	r5, [r1, #20]
 3005 0056 42EA8502 		orr	r2, r2, r5, lsl #2
 3006 005a 8D69     		ldr	r5, [r1, #24]
 3007 005c 42EA8502 		orr	r2, r2, r5, lsl #2
ARM GAS  /var/folders/t4/6192qx0n3zgdnvcwt906k_mw0000gn/T//cc5P7dKr.s 			page 51


 3008              	.L369:
 3009 0060 4260     		str	r2, [r0, #4]
 3010 0062 8461     		str	r4, [r0, #24]
 3011 0064 4A68     		ldr	r2, [r1, #4]
 3012 0066 8263     		str	r2, [r0, #56]
 3013 0068 0362     		str	r3, [r0, #32]
 3014 006a 30BC     		pop	{r4, r5}
 3015 006c 7047     		bx	lr
 3016              	.L373:
 3017 006e 00BF     		.align	2
 3018              	.L372:
 3019 0070 002C0140 		.word	1073818624
 3020 0074 00400140 		.word	1073823744
 3022              		.section	.text.HAL_TIM_OC_ConfigChannel,"ax",%progbits
 3023              		.align	1
 3024              		.global	HAL_TIM_OC_ConfigChannel
 3025              		.syntax unified
 3026              		.thumb
 3027              		.thumb_func
 3029              	HAL_TIM_OC_ConfigChannel:
 3030              		@ args = 0, pretend = 0, frame = 0
 3031              		@ frame_needed = 0, uses_anonymous_args = 0
 3032 0000 90F83C30 		ldrb	r3, [r0, #60]	@ zero_extendqisi2
 3033 0004 012B     		cmp	r3, #1
 3034 0006 28D0     		beq	.L382
 3035 0008 10B5     		push	{r4, lr}
 3036 000a 0446     		mov	r4, r0
 3037 000c 0123     		movs	r3, #1
 3038 000e 80F83C30 		strb	r3, [r0, #60]
 3039 0012 0C2A     		cmp	r2, #12
 3040 0014 1CD8     		bhi	.L383
 3041 0016 DFE802F0 		tbb	[pc, r2]
 3042              	.L378:
 3043 001a 07       		.byte	(.L381-.L378)/2
 3044 001b 1B       		.byte	(.L383-.L378)/2
 3045 001c 1B       		.byte	(.L383-.L378)/2
 3046 001d 1B       		.byte	(.L383-.L378)/2
 3047 001e 0C       		.byte	(.L380-.L378)/2
 3048 001f 1B       		.byte	(.L383-.L378)/2
 3049 0020 1B       		.byte	(.L383-.L378)/2
 3050 0021 1B       		.byte	(.L383-.L378)/2
 3051 0022 11       		.byte	(.L379-.L378)/2
 3052 0023 1B       		.byte	(.L383-.L378)/2
 3053 0024 1B       		.byte	(.L383-.L378)/2
 3054 0025 1B       		.byte	(.L383-.L378)/2
 3055 0026 16       		.byte	(.L377-.L378)/2
 3056 0027 00       		.p2align 1
 3057              	.L381:
 3058 0028 0068     		ldr	r0, [r0]
 3059 002a FFF7FEFF 		bl	TIM_OC1_SetConfig
 3060 002e 0020     		movs	r0, #0
 3061 0030 0FE0     		b	.L376
 3062              	.L380:
 3063 0032 0068     		ldr	r0, [r0]
 3064 0034 FFF7FEFF 		bl	TIM_OC2_SetConfig
 3065 0038 0020     		movs	r0, #0
 3066 003a 0AE0     		b	.L376
ARM GAS  /var/folders/t4/6192qx0n3zgdnvcwt906k_mw0000gn/T//cc5P7dKr.s 			page 52


 3067              	.L379:
 3068 003c 0068     		ldr	r0, [r0]
 3069 003e FFF7FEFF 		bl	TIM_OC3_SetConfig
 3070 0042 0020     		movs	r0, #0
 3071 0044 05E0     		b	.L376
 3072              	.L377:
 3073 0046 0068     		ldr	r0, [r0]
 3074 0048 FFF7FEFF 		bl	TIM_OC4_SetConfig
 3075 004c 0020     		movs	r0, #0
 3076 004e 00E0     		b	.L376
 3077              	.L383:
 3078 0050 0120     		movs	r0, #1
 3079              	.L376:
 3080 0052 0023     		movs	r3, #0
 3081 0054 84F83C30 		strb	r3, [r4, #60]
 3082 0058 10BD     		pop	{r4, pc}
 3083              	.L382:
 3084 005a 0220     		movs	r0, #2
 3085 005c 7047     		bx	lr
 3087              		.section	.text.HAL_TIM_PWM_ConfigChannel,"ax",%progbits
 3088              		.align	1
 3089              		.global	HAL_TIM_PWM_ConfigChannel
 3090              		.syntax unified
 3091              		.thumb
 3092              		.thumb_func
 3094              	HAL_TIM_PWM_ConfigChannel:
 3095              		@ args = 0, pretend = 0, frame = 0
 3096              		@ frame_needed = 0, uses_anonymous_args = 0
 3097 0000 38B5     		push	{r3, r4, r5, lr}
 3098 0002 90F83C30 		ldrb	r3, [r0, #60]	@ zero_extendqisi2
 3099 0006 012B     		cmp	r3, #1
 3100 0008 66D0     		beq	.L396
 3101 000a 0446     		mov	r4, r0
 3102 000c 0D46     		mov	r5, r1
 3103 000e 0123     		movs	r3, #1
 3104 0010 80F83C30 		strb	r3, [r0, #60]
 3105 0014 0C2A     		cmp	r2, #12
 3106 0016 5AD8     		bhi	.L397
 3107 0018 DFE802F0 		tbb	[pc, r2]
 3108              	.L392:
 3109 001c 07       		.byte	(.L395-.L392)/2
 3110 001d 59       		.byte	(.L397-.L392)/2
 3111 001e 59       		.byte	(.L397-.L392)/2
 3112 001f 59       		.byte	(.L397-.L392)/2
 3113 0020 1B       		.byte	(.L394-.L392)/2
 3114 0021 59       		.byte	(.L397-.L392)/2
 3115 0022 59       		.byte	(.L397-.L392)/2
 3116 0023 59       		.byte	(.L397-.L392)/2
 3117 0024 30       		.byte	(.L393-.L392)/2
 3118 0025 59       		.byte	(.L397-.L392)/2
 3119 0026 59       		.byte	(.L397-.L392)/2
 3120 0027 59       		.byte	(.L397-.L392)/2
 3121 0028 44       		.byte	(.L391-.L392)/2
 3122 0029 00       		.p2align 1
 3123              	.L395:
 3124 002a 0068     		ldr	r0, [r0]
 3125 002c FFF7FEFF 		bl	TIM_OC1_SetConfig
ARM GAS  /var/folders/t4/6192qx0n3zgdnvcwt906k_mw0000gn/T//cc5P7dKr.s 			page 53


 3126 0030 2268     		ldr	r2, [r4]
 3127 0032 9369     		ldr	r3, [r2, #24]
 3128 0034 43F00803 		orr	r3, r3, #8
 3129 0038 9361     		str	r3, [r2, #24]
 3130 003a 2268     		ldr	r2, [r4]
 3131 003c 9369     		ldr	r3, [r2, #24]
 3132 003e 23F00403 		bic	r3, r3, #4
 3133 0042 9361     		str	r3, [r2, #24]
 3134 0044 2268     		ldr	r2, [r4]
 3135 0046 9369     		ldr	r3, [r2, #24]
 3136 0048 2969     		ldr	r1, [r5, #16]
 3137 004a 0B43     		orrs	r3, r3, r1
 3138 004c 9361     		str	r3, [r2, #24]
 3139 004e 0020     		movs	r0, #0
 3140 0050 3EE0     		b	.L390
 3141              	.L394:
 3142 0052 0068     		ldr	r0, [r0]
 3143 0054 FFF7FEFF 		bl	TIM_OC2_SetConfig
 3144 0058 2268     		ldr	r2, [r4]
 3145 005a 9369     		ldr	r3, [r2, #24]
 3146 005c 43F40063 		orr	r3, r3, #2048
 3147 0060 9361     		str	r3, [r2, #24]
 3148 0062 2268     		ldr	r2, [r4]
 3149 0064 9369     		ldr	r3, [r2, #24]
 3150 0066 23F48063 		bic	r3, r3, #1024
 3151 006a 9361     		str	r3, [r2, #24]
 3152 006c 2268     		ldr	r2, [r4]
 3153 006e 9369     		ldr	r3, [r2, #24]
 3154 0070 2969     		ldr	r1, [r5, #16]
 3155 0072 43EA0123 		orr	r3, r3, r1, lsl #8
 3156 0076 9361     		str	r3, [r2, #24]
 3157 0078 0020     		movs	r0, #0
 3158 007a 29E0     		b	.L390
 3159              	.L393:
 3160 007c 0068     		ldr	r0, [r0]
 3161 007e FFF7FEFF 		bl	TIM_OC3_SetConfig
 3162 0082 2268     		ldr	r2, [r4]
 3163 0084 D369     		ldr	r3, [r2, #28]
 3164 0086 43F00803 		orr	r3, r3, #8
 3165 008a D361     		str	r3, [r2, #28]
 3166 008c 2268     		ldr	r2, [r4]
 3167 008e D369     		ldr	r3, [r2, #28]
 3168 0090 23F00403 		bic	r3, r3, #4
 3169 0094 D361     		str	r3, [r2, #28]
 3170 0096 2268     		ldr	r2, [r4]
 3171 0098 D369     		ldr	r3, [r2, #28]
 3172 009a 2969     		ldr	r1, [r5, #16]
 3173 009c 0B43     		orrs	r3, r3, r1
 3174 009e D361     		str	r3, [r2, #28]
 3175 00a0 0020     		movs	r0, #0
 3176 00a2 15E0     		b	.L390
 3177              	.L391:
 3178 00a4 0068     		ldr	r0, [r0]
 3179 00a6 FFF7FEFF 		bl	TIM_OC4_SetConfig
 3180 00aa 2268     		ldr	r2, [r4]
 3181 00ac D369     		ldr	r3, [r2, #28]
 3182 00ae 43F40063 		orr	r3, r3, #2048
ARM GAS  /var/folders/t4/6192qx0n3zgdnvcwt906k_mw0000gn/T//cc5P7dKr.s 			page 54


 3183 00b2 D361     		str	r3, [r2, #28]
 3184 00b4 2268     		ldr	r2, [r4]
 3185 00b6 D369     		ldr	r3, [r2, #28]
 3186 00b8 23F48063 		bic	r3, r3, #1024
 3187 00bc D361     		str	r3, [r2, #28]
 3188 00be 2268     		ldr	r2, [r4]
 3189 00c0 D369     		ldr	r3, [r2, #28]
 3190 00c2 2969     		ldr	r1, [r5, #16]
 3191 00c4 43EA0123 		orr	r3, r3, r1, lsl #8
 3192 00c8 D361     		str	r3, [r2, #28]
 3193 00ca 0020     		movs	r0, #0
 3194 00cc 00E0     		b	.L390
 3195              	.L397:
 3196 00ce 0120     		movs	r0, #1
 3197              	.L390:
 3198 00d0 0023     		movs	r3, #0
 3199 00d2 84F83C30 		strb	r3, [r4, #60]
 3200              	.L389:
 3201 00d6 38BD     		pop	{r3, r4, r5, pc}
 3202              	.L396:
 3203 00d8 0220     		movs	r0, #2
 3204 00da FCE7     		b	.L389
 3206              		.section	.text.TIM_TI1_SetConfig,"ax",%progbits
 3207              		.align	1
 3208              		.global	TIM_TI1_SetConfig
 3209              		.syntax unified
 3210              		.thumb
 3211              		.thumb_func
 3213              	TIM_TI1_SetConfig:
 3214              		@ args = 0, pretend = 0, frame = 0
 3215              		@ frame_needed = 0, uses_anonymous_args = 0
 3216              		@ link register save eliminated.
 3217 0000 70B4     		push	{r4, r5, r6}
 3218 0002 9446     		mov	ip, r2
 3219 0004 066A     		ldr	r6, [r0, #32]
 3220 0006 046A     		ldr	r4, [r0, #32]
 3221 0008 24F00104 		bic	r4, r4, #1
 3222 000c 0462     		str	r4, [r0, #32]
 3223 000e 8469     		ldr	r4, [r0, #24]
 3224 0010 124D     		ldr	r5, .L403
 3225 0012 A842     		cmp	r0, r5
 3226 0014 10D0     		beq	.L400
 3227 0016 B0F1804F 		cmp	r0, #1073741824
 3228 001a 0DD0     		beq	.L400
 3229 001c 104A     		ldr	r2, .L403+4
 3230 001e 9042     		cmp	r0, r2
 3231 0020 0AD0     		beq	.L400
 3232 0022 02F58062 		add	r2, r2, #1024
 3233 0026 9042     		cmp	r0, r2
 3234 0028 06D0     		beq	.L400
 3235 002a 02F59C32 		add	r2, r2, #79872
 3236 002e 9042     		cmp	r0, r2
 3237 0030 02D0     		beq	.L400
 3238 0032 44F00102 		orr	r2, r4, #1
 3239 0036 03E0     		b	.L401
 3240              	.L400:
 3241 0038 24F00302 		bic	r2, r4, #3
ARM GAS  /var/folders/t4/6192qx0n3zgdnvcwt906k_mw0000gn/T//cc5P7dKr.s 			page 55


 3242 003c 42EA0C02 		orr	r2, r2, ip
 3243              	.L401:
 3244 0040 22F0F002 		bic	r2, r2, #240
 3245 0044 1B01     		lsls	r3, r3, #4
 3246 0046 DBB2     		uxtb	r3, r3
 3247 0048 1343     		orrs	r3, r3, r2
 3248 004a 26F00A02 		bic	r2, r6, #10
 3249 004e 01F00A01 		and	r1, r1, #10
 3250 0052 1143     		orrs	r1, r1, r2
 3251 0054 8361     		str	r3, [r0, #24]
 3252 0056 0162     		str	r1, [r0, #32]
 3253 0058 70BC     		pop	{r4, r5, r6}
 3254 005a 7047     		bx	lr
 3255              	.L404:
 3256              		.align	2
 3257              	.L403:
 3258 005c 002C0140 		.word	1073818624
 3259 0060 00040040 		.word	1073742848
 3261              		.section	.text.HAL_TIM_IC_ConfigChannel,"ax",%progbits
 3262              		.align	1
 3263              		.global	HAL_TIM_IC_ConfigChannel
 3264              		.syntax unified
 3265              		.thumb
 3266              		.thumb_func
 3268              	HAL_TIM_IC_ConfigChannel:
 3269              		@ args = 0, pretend = 0, frame = 0
 3270              		@ frame_needed = 0, uses_anonymous_args = 0
 3271 0000 38B5     		push	{r3, r4, r5, lr}
 3272 0002 90F83C30 		ldrb	r3, [r0, #60]	@ zero_extendqisi2
 3273 0006 012B     		cmp	r3, #1
 3274 0008 5ED0     		beq	.L413
 3275 000a 0446     		mov	r4, r0
 3276 000c 0D46     		mov	r5, r1
 3277 000e 0123     		movs	r3, #1
 3278 0010 80F83C30 		strb	r3, [r0, #60]
 3279 0014 0C2A     		cmp	r2, #12
 3280 0016 52D8     		bhi	.L414
 3281 0018 DFE802F0 		tbb	[pc, r2]
 3282              	.L409:
 3283 001c 07       		.byte	(.L412-.L409)/2
 3284 001d 51       		.byte	(.L414-.L409)/2
 3285 001e 51       		.byte	(.L414-.L409)/2
 3286 001f 51       		.byte	(.L414-.L409)/2
 3287 0020 19       		.byte	(.L411-.L409)/2
 3288 0021 51       		.byte	(.L414-.L409)/2
 3289 0022 51       		.byte	(.L414-.L409)/2
 3290 0023 51       		.byte	(.L414-.L409)/2
 3291 0024 2C       		.byte	(.L410-.L409)/2
 3292 0025 51       		.byte	(.L414-.L409)/2
 3293 0026 51       		.byte	(.L414-.L409)/2
 3294 0027 51       		.byte	(.L414-.L409)/2
 3295 0028 3E       		.byte	(.L408-.L409)/2
 3296 0029 00       		.p2align 1
 3297              	.L412:
 3298 002a CB68     		ldr	r3, [r1, #12]
 3299 002c 4A68     		ldr	r2, [r1, #4]
 3300 002e 0968     		ldr	r1, [r1]
ARM GAS  /var/folders/t4/6192qx0n3zgdnvcwt906k_mw0000gn/T//cc5P7dKr.s 			page 56


 3301 0030 0068     		ldr	r0, [r0]
 3302 0032 FFF7FEFF 		bl	TIM_TI1_SetConfig
 3303 0036 2268     		ldr	r2, [r4]
 3304 0038 9369     		ldr	r3, [r2, #24]
 3305 003a 23F00C03 		bic	r3, r3, #12
 3306 003e 9361     		str	r3, [r2, #24]
 3307 0040 2268     		ldr	r2, [r4]
 3308 0042 9369     		ldr	r3, [r2, #24]
 3309 0044 A968     		ldr	r1, [r5, #8]
 3310 0046 0B43     		orrs	r3, r3, r1
 3311 0048 9361     		str	r3, [r2, #24]
 3312 004a 0020     		movs	r0, #0
 3313 004c 38E0     		b	.L407
 3314              	.L411:
 3315 004e CB68     		ldr	r3, [r1, #12]
 3316 0050 4A68     		ldr	r2, [r1, #4]
 3317 0052 0968     		ldr	r1, [r1]
 3318 0054 0068     		ldr	r0, [r0]
 3319 0056 FFF7FEFF 		bl	TIM_TI2_SetConfig
 3320 005a 2268     		ldr	r2, [r4]
 3321 005c 9369     		ldr	r3, [r2, #24]
 3322 005e 23F44063 		bic	r3, r3, #3072
 3323 0062 9361     		str	r3, [r2, #24]
 3324 0064 2268     		ldr	r2, [r4]
 3325 0066 9369     		ldr	r3, [r2, #24]
 3326 0068 A968     		ldr	r1, [r5, #8]
 3327 006a 43EA0123 		orr	r3, r3, r1, lsl #8
 3328 006e 9361     		str	r3, [r2, #24]
 3329 0070 0020     		movs	r0, #0
 3330 0072 25E0     		b	.L407
 3331              	.L410:
 3332 0074 CB68     		ldr	r3, [r1, #12]
 3333 0076 4A68     		ldr	r2, [r1, #4]
 3334 0078 0968     		ldr	r1, [r1]
 3335 007a 0068     		ldr	r0, [r0]
 3336 007c FFF7FEFF 		bl	TIM_TI3_SetConfig
 3337 0080 2268     		ldr	r2, [r4]
 3338 0082 D369     		ldr	r3, [r2, #28]
 3339 0084 23F00C03 		bic	r3, r3, #12
 3340 0088 D361     		str	r3, [r2, #28]
 3341 008a 2268     		ldr	r2, [r4]
 3342 008c D369     		ldr	r3, [r2, #28]
 3343 008e A968     		ldr	r1, [r5, #8]
 3344 0090 0B43     		orrs	r3, r3, r1
 3345 0092 D361     		str	r3, [r2, #28]
 3346 0094 0020     		movs	r0, #0
 3347 0096 13E0     		b	.L407
 3348              	.L408:
 3349 0098 CB68     		ldr	r3, [r1, #12]
 3350 009a 4A68     		ldr	r2, [r1, #4]
 3351 009c 0968     		ldr	r1, [r1]
 3352 009e 0068     		ldr	r0, [r0]
 3353 00a0 FFF7FEFF 		bl	TIM_TI4_SetConfig
 3354 00a4 2268     		ldr	r2, [r4]
 3355 00a6 D369     		ldr	r3, [r2, #28]
 3356 00a8 23F44063 		bic	r3, r3, #3072
 3357 00ac D361     		str	r3, [r2, #28]
ARM GAS  /var/folders/t4/6192qx0n3zgdnvcwt906k_mw0000gn/T//cc5P7dKr.s 			page 57


 3358 00ae 2268     		ldr	r2, [r4]
 3359 00b0 D369     		ldr	r3, [r2, #28]
 3360 00b2 A968     		ldr	r1, [r5, #8]
 3361 00b4 43EA0123 		orr	r3, r3, r1, lsl #8
 3362 00b8 D361     		str	r3, [r2, #28]
 3363 00ba 0020     		movs	r0, #0
 3364 00bc 00E0     		b	.L407
 3365              	.L414:
 3366 00be 0120     		movs	r0, #1
 3367              	.L407:
 3368 00c0 0023     		movs	r3, #0
 3369 00c2 84F83C30 		strb	r3, [r4, #60]
 3370              	.L406:
 3371 00c6 38BD     		pop	{r3, r4, r5, pc}
 3372              	.L413:
 3373 00c8 0220     		movs	r0, #2
 3374 00ca FCE7     		b	.L406
 3376              		.section	.text.HAL_TIM_OnePulse_ConfigChannel,"ax",%progbits
 3377              		.align	1
 3378              		.global	HAL_TIM_OnePulse_ConfigChannel
 3379              		.syntax unified
 3380              		.thumb
 3381              		.thumb_func
 3383              	HAL_TIM_OnePulse_ConfigChannel:
 3384              		@ args = 0, pretend = 0, frame = 32
 3385              		@ frame_needed = 0, uses_anonymous_args = 0
 3386 0000 9A42     		cmp	r2, r3
 3387 0002 76D0     		beq	.L424
 3388 0004 70B5     		push	{r4, r5, r6, lr}
 3389 0006 88B0     		sub	sp, sp, #32
 3390 0008 0446     		mov	r4, r0
 3391 000a 0D46     		mov	r5, r1
 3392 000c 1E46     		mov	r6, r3
 3393 000e 90F83C30 		ldrb	r3, [r0, #60]	@ zero_extendqisi2
 3394 0012 012B     		cmp	r3, #1
 3395 0014 6FD0     		beq	.L425
 3396 0016 0123     		movs	r3, #1
 3397 0018 80F83C30 		strb	r3, [r0, #60]
 3398 001c 0223     		movs	r3, #2
 3399 001e 80F83D30 		strb	r3, [r0, #61]
 3400 0022 0B68     		ldr	r3, [r1]
 3401 0024 0193     		str	r3, [sp, #4]
 3402 0026 4B68     		ldr	r3, [r1, #4]
 3403 0028 0293     		str	r3, [sp, #8]
 3404 002a 8B68     		ldr	r3, [r1, #8]
 3405 002c 0393     		str	r3, [sp, #12]
 3406 002e CB68     		ldr	r3, [r1, #12]
 3407 0030 0493     		str	r3, [sp, #16]
 3408 0032 0B69     		ldr	r3, [r1, #16]
 3409 0034 0693     		str	r3, [sp, #24]
 3410 0036 4B69     		ldr	r3, [r1, #20]
 3411 0038 0793     		str	r3, [sp, #28]
 3412 003a 52B1     		cbz	r2, .L418
 3413 003c 042A     		cmp	r2, #4
 3414 003e 11D0     		beq	.L419
 3415 0040 0120     		movs	r0, #1
 3416              	.L420:
ARM GAS  /var/folders/t4/6192qx0n3zgdnvcwt906k_mw0000gn/T//cc5P7dKr.s 			page 58


 3417 0042 0123     		movs	r3, #1
 3418 0044 84F83D30 		strb	r3, [r4, #61]
 3419 0048 0023     		movs	r3, #0
 3420 004a 84F83C30 		strb	r3, [r4, #60]
 3421              	.L417:
 3422 004e 08B0     		add	sp, sp, #32
 3423              		@ sp needed
 3424 0050 70BD     		pop	{r4, r5, r6, pc}
 3425              	.L418:
 3426 0052 01A9     		add	r1, sp, #4
 3427 0054 0068     		ldr	r0, [r0]
 3428 0056 FFF7FEFF 		bl	TIM_OC1_SetConfig
 3429              	.L421:
 3430 005a 46B1     		cbz	r6, .L422
 3431 005c 042E     		cmp	r6, #4
 3432 005e 27D0     		beq	.L423
 3433 0060 0120     		movs	r0, #1
 3434 0062 EEE7     		b	.L420
 3435              	.L419:
 3436 0064 01A9     		add	r1, sp, #4
 3437 0066 0068     		ldr	r0, [r0]
 3438 0068 FFF7FEFF 		bl	TIM_OC2_SetConfig
 3439 006c F5E7     		b	.L421
 3440              	.L422:
 3441 006e 2B6A     		ldr	r3, [r5, #32]
 3442 0070 EA69     		ldr	r2, [r5, #28]
 3443 0072 A969     		ldr	r1, [r5, #24]
 3444 0074 2068     		ldr	r0, [r4]
 3445 0076 FFF7FEFF 		bl	TIM_TI1_SetConfig
 3446 007a 2268     		ldr	r2, [r4]
 3447 007c 9369     		ldr	r3, [r2, #24]
 3448 007e 23F00C03 		bic	r3, r3, #12
 3449 0082 9361     		str	r3, [r2, #24]
 3450 0084 2268     		ldr	r2, [r4]
 3451 0086 9368     		ldr	r3, [r2, #8]
 3452 0088 23F07003 		bic	r3, r3, #112
 3453 008c 9360     		str	r3, [r2, #8]
 3454 008e 2268     		ldr	r2, [r4]
 3455 0090 9368     		ldr	r3, [r2, #8]
 3456 0092 43F05003 		orr	r3, r3, #80
 3457 0096 9360     		str	r3, [r2, #8]
 3458 0098 2268     		ldr	r2, [r4]
 3459 009a 9368     		ldr	r3, [r2, #8]
 3460 009c 23F00703 		bic	r3, r3, #7
 3461 00a0 9360     		str	r3, [r2, #8]
 3462 00a2 2268     		ldr	r2, [r4]
 3463 00a4 9368     		ldr	r3, [r2, #8]
 3464 00a6 43F00603 		orr	r3, r3, #6
 3465 00aa 9360     		str	r3, [r2, #8]
 3466 00ac 0020     		movs	r0, #0
 3467 00ae C8E7     		b	.L420
 3468              	.L423:
 3469 00b0 2B6A     		ldr	r3, [r5, #32]
 3470 00b2 EA69     		ldr	r2, [r5, #28]
 3471 00b4 A969     		ldr	r1, [r5, #24]
 3472 00b6 2068     		ldr	r0, [r4]
 3473 00b8 FFF7FEFF 		bl	TIM_TI2_SetConfig
ARM GAS  /var/folders/t4/6192qx0n3zgdnvcwt906k_mw0000gn/T//cc5P7dKr.s 			page 59


 3474 00bc 2268     		ldr	r2, [r4]
 3475 00be 9369     		ldr	r3, [r2, #24]
 3476 00c0 23F44063 		bic	r3, r3, #3072
 3477 00c4 9361     		str	r3, [r2, #24]
 3478 00c6 2268     		ldr	r2, [r4]
 3479 00c8 9368     		ldr	r3, [r2, #8]
 3480 00ca 23F07003 		bic	r3, r3, #112
 3481 00ce 9360     		str	r3, [r2, #8]
 3482 00d0 2268     		ldr	r2, [r4]
 3483 00d2 9368     		ldr	r3, [r2, #8]
 3484 00d4 43F06003 		orr	r3, r3, #96
 3485 00d8 9360     		str	r3, [r2, #8]
 3486 00da 2268     		ldr	r2, [r4]
 3487 00dc 9368     		ldr	r3, [r2, #8]
 3488 00de 23F00703 		bic	r3, r3, #7
 3489 00e2 9360     		str	r3, [r2, #8]
 3490 00e4 2268     		ldr	r2, [r4]
 3491 00e6 9368     		ldr	r3, [r2, #8]
 3492 00e8 43F00603 		orr	r3, r3, #6
 3493 00ec 9360     		str	r3, [r2, #8]
 3494 00ee 0020     		movs	r0, #0
 3495 00f0 A7E7     		b	.L420
 3496              	.L424:
 3497 00f2 0120     		movs	r0, #1
 3498 00f4 7047     		bx	lr
 3499              	.L425:
 3500 00f6 0220     		movs	r0, #2
 3501 00f8 A9E7     		b	.L417
 3503              		.section	.text.TIM_ETR_SetConfig,"ax",%progbits
 3504              		.align	1
 3505              		.global	TIM_ETR_SetConfig
 3506              		.syntax unified
 3507              		.thumb
 3508              		.thumb_func
 3510              	TIM_ETR_SetConfig:
 3511              		@ args = 0, pretend = 0, frame = 0
 3512              		@ frame_needed = 0, uses_anonymous_args = 0
 3513              		@ link register save eliminated.
 3514 0000 10B4     		push	{r4}
 3515 0002 8468     		ldr	r4, [r0, #8]
 3516 0004 24F47F4C 		bic	ip, r4, #65280
 3517 0008 42EA0322 		orr	r2, r2, r3, lsl #8
 3518 000c 0A43     		orrs	r2, r2, r1
 3519 000e 42EA0C02 		orr	r2, r2, ip
 3520 0012 8260     		str	r2, [r0, #8]
 3521 0014 10BC     		pop	{r4}
 3522 0016 7047     		bx	lr
 3524              		.section	.text.HAL_TIM_ConfigOCrefClear,"ax",%progbits
 3525              		.align	1
 3526              		.global	HAL_TIM_ConfigOCrefClear
 3527              		.syntax unified
 3528              		.thumb
 3529              		.thumb_func
 3531              	HAL_TIM_ConfigOCrefClear:
 3532              		@ args = 0, pretend = 0, frame = 0
 3533              		@ frame_needed = 0, uses_anonymous_args = 0
 3534 0000 90F83C30 		ldrb	r3, [r0, #60]	@ zero_extendqisi2
ARM GAS  /var/folders/t4/6192qx0n3zgdnvcwt906k_mw0000gn/T//cc5P7dKr.s 			page 60


 3535 0004 012B     		cmp	r3, #1
 3536 0006 76D0     		beq	.L448
 3537 0008 70B5     		push	{r4, r5, r6, lr}
 3538 000a 0446     		mov	r4, r0
 3539 000c 0D46     		mov	r5, r1
 3540 000e 1646     		mov	r6, r2
 3541 0010 0123     		movs	r3, #1
 3542 0012 80F83C30 		strb	r3, [r0, #60]
 3543 0016 0223     		movs	r3, #2
 3544 0018 80F83D30 		strb	r3, [r0, #61]
 3545 001c 4B68     		ldr	r3, [r1, #4]
 3546 001e 4BB1     		cbz	r3, .L434
 3547 0020 012B     		cmp	r3, #1
 3548 0022 17D0     		beq	.L435
 3549 0024 0120     		movs	r0, #1
 3550              	.L436:
 3551 0026 0123     		movs	r3, #1
 3552 0028 84F83D30 		strb	r3, [r4, #61]
 3553 002c 0023     		movs	r3, #0
 3554 002e 84F83C30 		strb	r3, [r4, #60]
 3555              	.L433:
 3556 0032 70BD     		pop	{r4, r5, r6, pc}
 3557              	.L434:
 3558 0034 0268     		ldr	r2, [r0]
 3559 0036 9368     		ldr	r3, [r2, #8]
 3560 0038 23F47F43 		bic	r3, r3, #65280
 3561 003c 9360     		str	r3, [r2, #8]
 3562              	.L437:
 3563 003e 0C2E     		cmp	r6, #12
 3564 0040 57D8     		bhi	.L449
 3565 0042 DFE806F0 		tbb	[pc, r6]
 3566              	.L440:
 3567 0046 16       		.byte	(.L443-.L440)/2
 3568 0047 56       		.byte	(.L449-.L440)/2
 3569 0048 56       		.byte	(.L449-.L440)/2
 3570 0049 56       		.byte	(.L449-.L440)/2
 3571 004a 26       		.byte	(.L442-.L440)/2
 3572 004b 56       		.byte	(.L449-.L440)/2
 3573 004c 56       		.byte	(.L449-.L440)/2
 3574 004d 56       		.byte	(.L449-.L440)/2
 3575 004e 36       		.byte	(.L441-.L440)/2
 3576 004f 56       		.byte	(.L449-.L440)/2
 3577 0050 56       		.byte	(.L449-.L440)/2
 3578 0051 56       		.byte	(.L449-.L440)/2
 3579 0052 46       		.byte	(.L439-.L440)/2
 3580 0053 00       		.p2align 1
 3581              	.L435:
 3582 0054 C968     		ldr	r1, [r1, #12]
 3583 0056 31B1     		cbz	r1, .L438
 3584 0058 0120     		movs	r0, #1
 3585 005a 84F83D00 		strb	r0, [r4, #61]
 3586 005e 0023     		movs	r3, #0
 3587 0060 84F83C30 		strb	r3, [r4, #60]
 3588 0064 E5E7     		b	.L433
 3589              	.L438:
 3590 0066 2B69     		ldr	r3, [r5, #16]
 3591 0068 AA68     		ldr	r2, [r5, #8]
ARM GAS  /var/folders/t4/6192qx0n3zgdnvcwt906k_mw0000gn/T//cc5P7dKr.s 			page 61


 3592 006a 0068     		ldr	r0, [r0]
 3593 006c FFF7FEFF 		bl	TIM_ETR_SetConfig
 3594 0070 E5E7     		b	.L437
 3595              	.L443:
 3596 0072 2B68     		ldr	r3, [r5]
 3597 0074 33B1     		cbz	r3, .L444
 3598 0076 2268     		ldr	r2, [r4]
 3599 0078 9369     		ldr	r3, [r2, #24]
 3600 007a 43F08003 		orr	r3, r3, #128
 3601 007e 9361     		str	r3, [r2, #24]
 3602 0080 0020     		movs	r0, #0
 3603 0082 D0E7     		b	.L436
 3604              	.L444:
 3605 0084 2268     		ldr	r2, [r4]
 3606 0086 9369     		ldr	r3, [r2, #24]
 3607 0088 23F08003 		bic	r3, r3, #128
 3608 008c 9361     		str	r3, [r2, #24]
 3609 008e 0020     		movs	r0, #0
 3610 0090 C9E7     		b	.L436
 3611              	.L442:
 3612 0092 2B68     		ldr	r3, [r5]
 3613 0094 33B1     		cbz	r3, .L445
 3614 0096 2268     		ldr	r2, [r4]
 3615 0098 9369     		ldr	r3, [r2, #24]
 3616 009a 43F40043 		orr	r3, r3, #32768
 3617 009e 9361     		str	r3, [r2, #24]
 3618 00a0 0020     		movs	r0, #0
 3619 00a2 C0E7     		b	.L436
 3620              	.L445:
 3621 00a4 2268     		ldr	r2, [r4]
 3622 00a6 9369     		ldr	r3, [r2, #24]
 3623 00a8 23F40043 		bic	r3, r3, #32768
 3624 00ac 9361     		str	r3, [r2, #24]
 3625 00ae 0020     		movs	r0, #0
 3626 00b0 B9E7     		b	.L436
 3627              	.L441:
 3628 00b2 2B68     		ldr	r3, [r5]
 3629 00b4 33B1     		cbz	r3, .L446
 3630 00b6 2268     		ldr	r2, [r4]
 3631 00b8 D369     		ldr	r3, [r2, #28]
 3632 00ba 43F08003 		orr	r3, r3, #128
 3633 00be D361     		str	r3, [r2, #28]
 3634 00c0 0020     		movs	r0, #0
 3635 00c2 B0E7     		b	.L436
 3636              	.L446:
 3637 00c4 2268     		ldr	r2, [r4]
 3638 00c6 D369     		ldr	r3, [r2, #28]
 3639 00c8 23F08003 		bic	r3, r3, #128
 3640 00cc D361     		str	r3, [r2, #28]
 3641 00ce 0020     		movs	r0, #0
 3642 00d0 A9E7     		b	.L436
 3643              	.L439:
 3644 00d2 2B68     		ldr	r3, [r5]
 3645 00d4 33B1     		cbz	r3, .L447
 3646 00d6 2268     		ldr	r2, [r4]
 3647 00d8 D369     		ldr	r3, [r2, #28]
 3648 00da 43F40043 		orr	r3, r3, #32768
ARM GAS  /var/folders/t4/6192qx0n3zgdnvcwt906k_mw0000gn/T//cc5P7dKr.s 			page 62


 3649 00de D361     		str	r3, [r2, #28]
 3650 00e0 0020     		movs	r0, #0
 3651 00e2 A0E7     		b	.L436
 3652              	.L447:
 3653 00e4 2268     		ldr	r2, [r4]
 3654 00e6 D369     		ldr	r3, [r2, #28]
 3655 00e8 23F40043 		bic	r3, r3, #32768
 3656 00ec D361     		str	r3, [r2, #28]
 3657 00ee 0020     		movs	r0, #0
 3658 00f0 99E7     		b	.L436
 3659              	.L449:
 3660 00f2 0020     		movs	r0, #0
 3661 00f4 97E7     		b	.L436
 3662              	.L448:
 3663 00f6 0220     		movs	r0, #2
 3664 00f8 7047     		bx	lr
 3666              		.section	.text.HAL_TIM_ConfigClockSource,"ax",%progbits
 3667              		.align	1
 3668              		.global	HAL_TIM_ConfigClockSource
 3669              		.syntax unified
 3670              		.thumb
 3671              		.thumb_func
 3673              	HAL_TIM_ConfigClockSource:
 3674              		@ args = 0, pretend = 0, frame = 0
 3675              		@ frame_needed = 0, uses_anonymous_args = 0
 3676 0000 90F83C30 		ldrb	r3, [r0, #60]	@ zero_extendqisi2
 3677 0004 012B     		cmp	r3, #1
 3678 0006 78D0     		beq	.L465
 3679 0008 10B5     		push	{r4, lr}
 3680 000a 0446     		mov	r4, r0
 3681 000c 0123     		movs	r3, #1
 3682 000e 80F83C30 		strb	r3, [r0, #60]
 3683 0012 0223     		movs	r3, #2
 3684 0014 80F83D30 		strb	r3, [r0, #61]
 3685 0018 0268     		ldr	r2, [r0]
 3686 001a 9368     		ldr	r3, [r2, #8]
 3687 001c 23F47F43 		bic	r3, r3, #65280
 3688 0020 23F07703 		bic	r3, r3, #119
 3689 0024 9360     		str	r3, [r2, #8]
 3690 0026 0B68     		ldr	r3, [r1]
 3691 0028 602B     		cmp	r3, #96
 3692 002a 4CD0     		beq	.L456
 3693 002c 23D8     		bhi	.L457
 3694 002e 402B     		cmp	r3, #64
 3695 0030 54D0     		beq	.L458
 3696 0032 11D8     		bhi	.L459
 3697 0034 202B     		cmp	r3, #32
 3698 0036 03D0     		beq	.L460
 3699 0038 0AD8     		bhi	.L461
 3700 003a 0BB1     		cbz	r3, .L460
 3701 003c 102B     		cmp	r3, #16
 3702 003e 05D1     		bne	.L472
 3703              	.L460:
 3704 0040 1946     		mov	r1, r3
 3705 0042 2068     		ldr	r0, [r4]
 3706 0044 FFF7FEFF 		bl	TIM_ITRx_SetConfig
 3707 0048 0020     		movs	r0, #0
ARM GAS  /var/folders/t4/6192qx0n3zgdnvcwt906k_mw0000gn/T//cc5P7dKr.s 			page 63


 3708 004a 28E0     		b	.L462
 3709              	.L472:
 3710 004c 0120     		movs	r0, #1
 3711 004e 26E0     		b	.L462
 3712              	.L461:
 3713 0050 302B     		cmp	r3, #48
 3714 0052 F5D0     		beq	.L460
 3715 0054 0120     		movs	r0, #1
 3716 0056 22E0     		b	.L462
 3717              	.L459:
 3718 0058 502B     		cmp	r3, #80
 3719 005a 0AD1     		bne	.L473
 3720 005c CA68     		ldr	r2, [r1, #12]
 3721 005e 4968     		ldr	r1, [r1, #4]
 3722 0060 0068     		ldr	r0, [r0]
 3723 0062 FFF7FEFF 		bl	TIM_TI1_ConfigInputStage
 3724 0066 5021     		movs	r1, #80
 3725 0068 2068     		ldr	r0, [r4]
 3726 006a FFF7FEFF 		bl	TIM_ITRx_SetConfig
 3727 006e 0020     		movs	r0, #0
 3728 0070 15E0     		b	.L462
 3729              	.L473:
 3730 0072 0120     		movs	r0, #1
 3731 0074 13E0     		b	.L462
 3732              	.L457:
 3733 0076 B3F5805F 		cmp	r3, #4096
 3734 007a 3AD0     		beq	.L466
 3735 007c B3F5005F 		cmp	r3, #8192
 3736 0080 14D0     		beq	.L464
 3737 0082 702B     		cmp	r3, #112
 3738 0084 37D1     		bne	.L467
 3739 0086 CB68     		ldr	r3, [r1, #12]
 3740 0088 4A68     		ldr	r2, [r1, #4]
 3741 008a 8968     		ldr	r1, [r1, #8]
 3742 008c 0068     		ldr	r0, [r0]
 3743 008e FFF7FEFF 		bl	TIM_ETR_SetConfig
 3744 0092 2268     		ldr	r2, [r4]
 3745 0094 9368     		ldr	r3, [r2, #8]
 3746 0096 43F07703 		orr	r3, r3, #119
 3747 009a 9360     		str	r3, [r2, #8]
 3748 009c 0020     		movs	r0, #0
 3749              	.L462:
 3750 009e 0123     		movs	r3, #1
 3751 00a0 84F83D30 		strb	r3, [r4, #61]
 3752 00a4 0023     		movs	r3, #0
 3753 00a6 84F83C30 		strb	r3, [r4, #60]
 3754 00aa 10BD     		pop	{r4, pc}
 3755              	.L464:
 3756 00ac CB68     		ldr	r3, [r1, #12]
 3757 00ae 4A68     		ldr	r2, [r1, #4]
 3758 00b0 8968     		ldr	r1, [r1, #8]
 3759 00b2 0068     		ldr	r0, [r0]
 3760 00b4 FFF7FEFF 		bl	TIM_ETR_SetConfig
 3761 00b8 2268     		ldr	r2, [r4]
 3762 00ba 9368     		ldr	r3, [r2, #8]
 3763 00bc 43F48043 		orr	r3, r3, #16384
 3764 00c0 9360     		str	r3, [r2, #8]
ARM GAS  /var/folders/t4/6192qx0n3zgdnvcwt906k_mw0000gn/T//cc5P7dKr.s 			page 64


 3765 00c2 0020     		movs	r0, #0
 3766 00c4 EBE7     		b	.L462
 3767              	.L456:
 3768 00c6 CA68     		ldr	r2, [r1, #12]
 3769 00c8 4968     		ldr	r1, [r1, #4]
 3770 00ca 0068     		ldr	r0, [r0]
 3771 00cc FFF7FEFF 		bl	TIM_TI2_ConfigInputStage
 3772 00d0 6021     		movs	r1, #96
 3773 00d2 2068     		ldr	r0, [r4]
 3774 00d4 FFF7FEFF 		bl	TIM_ITRx_SetConfig
 3775 00d8 0020     		movs	r0, #0
 3776 00da E0E7     		b	.L462
 3777              	.L458:
 3778 00dc CA68     		ldr	r2, [r1, #12]
 3779 00de 4968     		ldr	r1, [r1, #4]
 3780 00e0 0068     		ldr	r0, [r0]
 3781 00e2 FFF7FEFF 		bl	TIM_TI1_ConfigInputStage
 3782 00e6 4021     		movs	r1, #64
 3783 00e8 2068     		ldr	r0, [r4]
 3784 00ea FFF7FEFF 		bl	TIM_ITRx_SetConfig
 3785 00ee 0020     		movs	r0, #0
 3786 00f0 D5E7     		b	.L462
 3787              	.L466:
 3788 00f2 0020     		movs	r0, #0
 3789 00f4 D3E7     		b	.L462
 3790              	.L467:
 3791 00f6 0120     		movs	r0, #1
 3792 00f8 D1E7     		b	.L462
 3793              	.L465:
 3794 00fa 0220     		movs	r0, #2
 3795 00fc 7047     		bx	lr
 3797              		.section	.text.TIM_SlaveTimer_SetConfig,"ax",%progbits
 3798              		.align	1
 3799              		.syntax unified
 3800              		.thumb
 3801              		.thumb_func
 3803              	TIM_SlaveTimer_SetConfig:
 3804              		@ args = 0, pretend = 0, frame = 0
 3805              		@ frame_needed = 0, uses_anonymous_args = 0
 3806 0000 10B5     		push	{r4, lr}
 3807 0002 0468     		ldr	r4, [r0]
 3808 0004 A268     		ldr	r2, [r4, #8]
 3809 0006 22F07002 		bic	r2, r2, #112
 3810 000a 4B68     		ldr	r3, [r1, #4]
 3811 000c 1343     		orrs	r3, r3, r2
 3812 000e 23F00703 		bic	r3, r3, #7
 3813 0012 0A68     		ldr	r2, [r1]
 3814 0014 1A43     		orrs	r2, r2, r3
 3815 0016 A260     		str	r2, [r4, #8]
 3816 0018 4B68     		ldr	r3, [r1, #4]
 3817 001a 502B     		cmp	r3, #80
 3818 001c 30D0     		beq	.L475
 3819 001e 0BD9     		bls	.L489
 3820 0020 602B     		cmp	r3, #96
 3821 0022 34D0     		beq	.L480
 3822 0024 702B     		cmp	r3, #112
 3823 0026 43D1     		bne	.L486
ARM GAS  /var/folders/t4/6192qx0n3zgdnvcwt906k_mw0000gn/T//cc5P7dKr.s 			page 65


 3824 0028 0B69     		ldr	r3, [r1, #16]
 3825 002a 8A68     		ldr	r2, [r1, #8]
 3826 002c C968     		ldr	r1, [r1, #12]
 3827 002e 0068     		ldr	r0, [r0]
 3828 0030 FFF7FEFF 		bl	TIM_ETR_SetConfig
 3829 0034 0020     		movs	r0, #0
 3830              	.L478:
 3831 0036 10BD     		pop	{r4, pc}
 3832              	.L489:
 3833 0038 402B     		cmp	r3, #64
 3834 003a 0CD0     		beq	.L477
 3835 003c 2ED8     		bhi	.L481
 3836 003e 202B     		cmp	r3, #32
 3837 0040 2ED0     		beq	.L482
 3838 0042 04D8     		bhi	.L479
 3839 0044 73B3     		cbz	r3, .L483
 3840 0046 102B     		cmp	r3, #16
 3841 0048 2ED1     		bne	.L484
 3842 004a 0020     		movs	r0, #0
 3843 004c F3E7     		b	.L478
 3844              	.L479:
 3845 004e 302B     		cmp	r3, #48
 3846 0050 2CD1     		bne	.L485
 3847 0052 0020     		movs	r0, #0
 3848 0054 EFE7     		b	.L478
 3849              	.L477:
 3850 0056 0B68     		ldr	r3, [r1]
 3851 0058 052B     		cmp	r3, #5
 3852 005a 2BD0     		beq	.L487
 3853 005c 0368     		ldr	r3, [r0]
 3854 005e 1C6A     		ldr	r4, [r3, #32]
 3855 0060 1A6A     		ldr	r2, [r3, #32]
 3856 0062 22F00102 		bic	r2, r2, #1
 3857 0066 1A62     		str	r2, [r3, #32]
 3858 0068 0268     		ldr	r2, [r0]
 3859 006a 9369     		ldr	r3, [r2, #24]
 3860 006c 23F0F003 		bic	r3, r3, #240
 3861 0070 0969     		ldr	r1, [r1, #16]
 3862 0072 43EA0113 		orr	r3, r3, r1, lsl #4
 3863 0076 9361     		str	r3, [r2, #24]
 3864 0078 0368     		ldr	r3, [r0]
 3865 007a 1C62     		str	r4, [r3, #32]
 3866 007c 0020     		movs	r0, #0
 3867 007e DAE7     		b	.L478
 3868              	.L475:
 3869 0080 0A69     		ldr	r2, [r1, #16]
 3870 0082 8968     		ldr	r1, [r1, #8]
 3871 0084 0068     		ldr	r0, [r0]
 3872 0086 FFF7FEFF 		bl	TIM_TI1_ConfigInputStage
 3873 008a 0020     		movs	r0, #0
 3874 008c D3E7     		b	.L478
 3875              	.L480:
 3876 008e 0A69     		ldr	r2, [r1, #16]
 3877 0090 8968     		ldr	r1, [r1, #8]
 3878 0092 0068     		ldr	r0, [r0]
 3879 0094 FFF7FEFF 		bl	TIM_TI2_ConfigInputStage
 3880 0098 0020     		movs	r0, #0
ARM GAS  /var/folders/t4/6192qx0n3zgdnvcwt906k_mw0000gn/T//cc5P7dKr.s 			page 66


 3881 009a CCE7     		b	.L478
 3882              	.L481:
 3883 009c 0120     		movs	r0, #1
 3884 009e CAE7     		b	.L478
 3885              	.L482:
 3886 00a0 0020     		movs	r0, #0
 3887 00a2 C8E7     		b	.L478
 3888              	.L483:
 3889 00a4 0020     		movs	r0, #0
 3890 00a6 C6E7     		b	.L478
 3891              	.L484:
 3892 00a8 0120     		movs	r0, #1
 3893 00aa C4E7     		b	.L478
 3894              	.L485:
 3895 00ac 0120     		movs	r0, #1
 3896 00ae C2E7     		b	.L478
 3897              	.L486:
 3898 00b0 0120     		movs	r0, #1
 3899 00b2 C0E7     		b	.L478
 3900              	.L487:
 3901 00b4 0120     		movs	r0, #1
 3902 00b6 BEE7     		b	.L478
 3904              		.section	.text.HAL_TIM_SlaveConfigSynchro,"ax",%progbits
 3905              		.align	1
 3906              		.global	HAL_TIM_SlaveConfigSynchro
 3907              		.syntax unified
 3908              		.thumb
 3909              		.thumb_func
 3911              	HAL_TIM_SlaveConfigSynchro:
 3912              		@ args = 0, pretend = 0, frame = 0
 3913              		@ frame_needed = 0, uses_anonymous_args = 0
 3914 0000 90F83C30 		ldrb	r3, [r0, #60]	@ zero_extendqisi2
 3915 0004 012B     		cmp	r3, #1
 3916 0006 22D0     		beq	.L493
 3917 0008 10B5     		push	{r4, lr}
 3918 000a 0446     		mov	r4, r0
 3919 000c 0123     		movs	r3, #1
 3920 000e 80F83C30 		strb	r3, [r0, #60]
 3921 0012 0223     		movs	r3, #2
 3922 0014 80F83D30 		strb	r3, [r0, #61]
 3923 0018 FFF7FEFF 		bl	TIM_SlaveTimer_SetConfig
 3924 001c 80B9     		cbnz	r0, .L498
 3925 001e 2268     		ldr	r2, [r4]
 3926 0020 D368     		ldr	r3, [r2, #12]
 3927 0022 23F04003 		bic	r3, r3, #64
 3928 0026 D360     		str	r3, [r2, #12]
 3929 0028 2268     		ldr	r2, [r4]
 3930 002a D368     		ldr	r3, [r2, #12]
 3931 002c 23F48043 		bic	r3, r3, #16384
 3932 0030 D360     		str	r3, [r2, #12]
 3933 0032 0123     		movs	r3, #1
 3934 0034 84F83D30 		strb	r3, [r4, #61]
 3935 0038 0023     		movs	r3, #0
 3936 003a 84F83C30 		strb	r3, [r4, #60]
 3937              	.L491:
 3938 003e 10BD     		pop	{r4, pc}
 3939              	.L498:
ARM GAS  /var/folders/t4/6192qx0n3zgdnvcwt906k_mw0000gn/T//cc5P7dKr.s 			page 67


 3940 0040 0120     		movs	r0, #1
 3941 0042 84F83D00 		strb	r0, [r4, #61]
 3942 0046 0023     		movs	r3, #0
 3943 0048 84F83C30 		strb	r3, [r4, #60]
 3944 004c F7E7     		b	.L491
 3945              	.L493:
 3946 004e 0220     		movs	r0, #2
 3947 0050 7047     		bx	lr
 3949              		.section	.text.HAL_TIM_SlaveConfigSynchro_IT,"ax",%progbits
 3950              		.align	1
 3951              		.global	HAL_TIM_SlaveConfigSynchro_IT
 3952              		.syntax unified
 3953              		.thumb
 3954              		.thumb_func
 3956              	HAL_TIM_SlaveConfigSynchro_IT:
 3957              		@ args = 0, pretend = 0, frame = 0
 3958              		@ frame_needed = 0, uses_anonymous_args = 0
 3959 0000 90F83C30 		ldrb	r3, [r0, #60]	@ zero_extendqisi2
 3960 0004 012B     		cmp	r3, #1
 3961 0006 22D0     		beq	.L502
 3962 0008 10B5     		push	{r4, lr}
 3963 000a 0446     		mov	r4, r0
 3964 000c 0123     		movs	r3, #1
 3965 000e 80F83C30 		strb	r3, [r0, #60]
 3966 0012 0223     		movs	r3, #2
 3967 0014 80F83D30 		strb	r3, [r0, #61]
 3968 0018 FFF7FEFF 		bl	TIM_SlaveTimer_SetConfig
 3969 001c 80B9     		cbnz	r0, .L507
 3970 001e 2268     		ldr	r2, [r4]
 3971 0020 D368     		ldr	r3, [r2, #12]
 3972 0022 43F04003 		orr	r3, r3, #64
 3973 0026 D360     		str	r3, [r2, #12]
 3974 0028 2268     		ldr	r2, [r4]
 3975 002a D368     		ldr	r3, [r2, #12]
 3976 002c 23F48043 		bic	r3, r3, #16384
 3977 0030 D360     		str	r3, [r2, #12]
 3978 0032 0123     		movs	r3, #1
 3979 0034 84F83D30 		strb	r3, [r4, #61]
 3980 0038 0023     		movs	r3, #0
 3981 003a 84F83C30 		strb	r3, [r4, #60]
 3982              	.L500:
 3983 003e 10BD     		pop	{r4, pc}
 3984              	.L507:
 3985 0040 0120     		movs	r0, #1
 3986 0042 84F83D00 		strb	r0, [r4, #61]
 3987 0046 0023     		movs	r3, #0
 3988 0048 84F83C30 		strb	r3, [r4, #60]
 3989 004c F7E7     		b	.L500
 3990              	.L502:
 3991 004e 0220     		movs	r0, #2
 3992 0050 7047     		bx	lr
 3994              		.section	.text.TIM_CCxChannelCmd,"ax",%progbits
 3995              		.align	1
 3996              		.global	TIM_CCxChannelCmd
 3997              		.syntax unified
 3998              		.thumb
 3999              		.thumb_func
ARM GAS  /var/folders/t4/6192qx0n3zgdnvcwt906k_mw0000gn/T//cc5P7dKr.s 			page 68


 4001              	TIM_CCxChannelCmd:
 4002              		@ args = 0, pretend = 0, frame = 0
 4003              		@ frame_needed = 0, uses_anonymous_args = 0
 4004              		@ link register save eliminated.
 4005 0000 01F01F01 		and	r1, r1, #31
 4006 0004 4FF0010C 		mov	ip, #1
 4007 0008 0CFA01FC 		lsl	ip, ip, r1
 4008 000c 036A     		ldr	r3, [r0, #32]
 4009 000e 23EA0C03 		bic	r3, r3, ip
 4010 0012 0362     		str	r3, [r0, #32]
 4011 0014 036A     		ldr	r3, [r0, #32]
 4012 0016 8A40     		lsls	r2, r2, r1
 4013 0018 1343     		orrs	r3, r3, r2
 4014 001a 0362     		str	r3, [r0, #32]
 4015 001c 7047     		bx	lr
 4017              		.section	.text.HAL_TIM_OC_Start,"ax",%progbits
 4018              		.align	1
 4019              		.global	HAL_TIM_OC_Start
 4020              		.syntax unified
 4021              		.thumb
 4022              		.thumb_func
 4024              	HAL_TIM_OC_Start:
 4025              		@ args = 0, pretend = 0, frame = 0
 4026              		@ frame_needed = 0, uses_anonymous_args = 0
 4027 0000 10B5     		push	{r4, lr}
 4028 0002 0446     		mov	r4, r0
 4029 0004 0846     		mov	r0, r1
 4030 0006 0029     		cmp	r1, #0
 4031 0008 3ED1     		bne	.L510
 4032 000a 94F83E30 		ldrb	r3, [r4, #62]	@ zero_extendqisi2
 4033 000e DBB2     		uxtb	r3, r3
 4034 0010 013B     		subs	r3, r3, #1
 4035 0012 18BF     		it	ne
 4036 0014 0123     		movne	r3, #1
 4037              	.L511:
 4038 0016 002B     		cmp	r3, #0
 4039 0018 6AD1     		bne	.L523
 4040 001a 0028     		cmp	r0, #0
 4041 001c 4DD1     		bne	.L515
 4042 001e 0223     		movs	r3, #2
 4043 0020 84F83E30 		strb	r3, [r4, #62]
 4044              	.L516:
 4045 0024 0122     		movs	r2, #1
 4046 0026 0146     		mov	r1, r0
 4047 0028 2068     		ldr	r0, [r4]
 4048 002a FFF7FEFF 		bl	TIM_CCxChannelCmd
 4049 002e 2368     		ldr	r3, [r4]
 4050 0030 314A     		ldr	r2, .L530
 4051 0032 9342     		cmp	r3, r2
 4052 0034 0BD0     		beq	.L519
 4053 0036 02F5A052 		add	r2, r2, #5120
 4054 003a 9342     		cmp	r3, r2
 4055 003c 07D0     		beq	.L519
 4056 003e 02F58062 		add	r2, r2, #1024
 4057 0042 9342     		cmp	r3, r2
 4058 0044 03D0     		beq	.L519
 4059 0046 02F58062 		add	r2, r2, #1024
ARM GAS  /var/folders/t4/6192qx0n3zgdnvcwt906k_mw0000gn/T//cc5P7dKr.s 			page 69


 4060 004a 9342     		cmp	r3, r2
 4061 004c 03D1     		bne	.L520
 4062              	.L519:
 4063 004e 5A6C     		ldr	r2, [r3, #68]
 4064 0050 42F40042 		orr	r2, r2, #32768
 4065 0054 5A64     		str	r2, [r3, #68]
 4066              	.L520:
 4067 0056 2368     		ldr	r3, [r4]
 4068 0058 274A     		ldr	r2, .L530
 4069 005a 9342     		cmp	r3, r2
 4070 005c 3DD0     		beq	.L521
 4071 005e B3F1804F 		cmp	r3, #1073741824
 4072 0062 3AD0     		beq	.L521
 4073 0064 A2F59432 		sub	r2, r2, #75776
 4074 0068 9342     		cmp	r3, r2
 4075 006a 36D0     		beq	.L521
 4076 006c 02F58062 		add	r2, r2, #1024
 4077 0070 9342     		cmp	r3, r2
 4078 0072 32D0     		beq	.L521
 4079 0074 02F59C32 		add	r2, r2, #79872
 4080 0078 9342     		cmp	r3, r2
 4081 007a 2ED0     		beq	.L521
 4082 007c 1A68     		ldr	r2, [r3]
 4083 007e 42F00102 		orr	r2, r2, #1
 4084 0082 1A60     		str	r2, [r3]
 4085 0084 0020     		movs	r0, #0
 4086 0086 32E0     		b	.L514
 4087              	.L510:
 4088 0088 0429     		cmp	r1, #4
 4089 008a 08D0     		beq	.L526
 4090 008c 0829     		cmp	r1, #8
 4091 008e 0DD0     		beq	.L527
 4092 0090 94F84130 		ldrb	r3, [r4, #65]	@ zero_extendqisi2
 4093 0094 DBB2     		uxtb	r3, r3
 4094 0096 013B     		subs	r3, r3, #1
 4095 0098 18BF     		it	ne
 4096 009a 0123     		movne	r3, #1
 4097 009c BBE7     		b	.L511
 4098              	.L526:
 4099 009e 94F83F30 		ldrb	r3, [r4, #63]	@ zero_extendqisi2
 4100 00a2 DBB2     		uxtb	r3, r3
 4101 00a4 013B     		subs	r3, r3, #1
 4102 00a6 18BF     		it	ne
 4103 00a8 0123     		movne	r3, #1
 4104 00aa B4E7     		b	.L511
 4105              	.L527:
 4106 00ac 94F84030 		ldrb	r3, [r4, #64]	@ zero_extendqisi2
 4107 00b0 DBB2     		uxtb	r3, r3
 4108 00b2 013B     		subs	r3, r3, #1
 4109 00b4 18BF     		it	ne
 4110 00b6 0123     		movne	r3, #1
 4111 00b8 ADE7     		b	.L511
 4112              	.L515:
 4113 00ba 0428     		cmp	r0, #4
 4114 00bc 05D0     		beq	.L528
 4115 00be 0828     		cmp	r0, #8
 4116 00c0 07D0     		beq	.L529
ARM GAS  /var/folders/t4/6192qx0n3zgdnvcwt906k_mw0000gn/T//cc5P7dKr.s 			page 70


 4117 00c2 0223     		movs	r3, #2
 4118 00c4 84F84130 		strb	r3, [r4, #65]
 4119 00c8 ACE7     		b	.L516
 4120              	.L528:
 4121 00ca 0223     		movs	r3, #2
 4122 00cc 84F83F30 		strb	r3, [r4, #63]
 4123 00d0 A8E7     		b	.L516
 4124              	.L529:
 4125 00d2 0223     		movs	r3, #2
 4126 00d4 84F84030 		strb	r3, [r4, #64]
 4127 00d8 A4E7     		b	.L516
 4128              	.L521:
 4129 00da 9A68     		ldr	r2, [r3, #8]
 4130 00dc 02F00702 		and	r2, r2, #7
 4131 00e0 062A     		cmp	r2, #6
 4132 00e2 07D0     		beq	.L524
 4133 00e4 1A68     		ldr	r2, [r3]
 4134 00e6 42F00102 		orr	r2, r2, #1
 4135 00ea 1A60     		str	r2, [r3]
 4136 00ec 0020     		movs	r0, #0
 4137              	.L514:
 4138 00ee 10BD     		pop	{r4, pc}
 4139              	.L523:
 4140 00f0 0120     		movs	r0, #1
 4141 00f2 FCE7     		b	.L514
 4142              	.L524:
 4143 00f4 0020     		movs	r0, #0
 4144 00f6 FAE7     		b	.L514
 4145              	.L531:
 4146              		.align	2
 4147              	.L530:
 4148 00f8 002C0140 		.word	1073818624
 4150              		.section	.text.HAL_TIM_OC_Stop,"ax",%progbits
 4151              		.align	1
 4152              		.global	HAL_TIM_OC_Stop
 4153              		.syntax unified
 4154              		.thumb
 4155              		.thumb_func
 4157              	HAL_TIM_OC_Stop:
 4158              		@ args = 0, pretend = 0, frame = 0
 4159              		@ frame_needed = 0, uses_anonymous_args = 0
 4160 0000 38B5     		push	{r3, r4, r5, lr}
 4161 0002 0446     		mov	r4, r0
 4162 0004 0D46     		mov	r5, r1
 4163 0006 0022     		movs	r2, #0
 4164 0008 0068     		ldr	r0, [r0]
 4165 000a FFF7FEFF 		bl	TIM_CCxChannelCmd
 4166 000e 2368     		ldr	r3, [r4]
 4167 0010 214A     		ldr	r2, .L543
 4168 0012 9342     		cmp	r3, r2
 4169 0014 20D0     		beq	.L533
 4170 0016 02F5A052 		add	r2, r2, #5120
 4171 001a 9342     		cmp	r3, r2
 4172 001c 1CD0     		beq	.L533
 4173 001e 02F58062 		add	r2, r2, #1024
 4174 0022 9342     		cmp	r3, r2
 4175 0024 18D0     		beq	.L533
ARM GAS  /var/folders/t4/6192qx0n3zgdnvcwt906k_mw0000gn/T//cc5P7dKr.s 			page 71


 4176 0026 02F58062 		add	r2, r2, #1024
 4177 002a 9342     		cmp	r3, r2
 4178 002c 14D0     		beq	.L533
 4179              	.L534:
 4180 002e 2368     		ldr	r3, [r4]
 4181 0030 196A     		ldr	r1, [r3, #32]
 4182 0032 41F21112 		movw	r2, #4369
 4183 0036 1142     		tst	r1, r2
 4184 0038 08D1     		bne	.L535
 4185 003a 196A     		ldr	r1, [r3, #32]
 4186 003c 40F24442 		movw	r2, #1092
 4187 0040 1142     		tst	r1, r2
 4188 0042 03D1     		bne	.L535
 4189 0044 1A68     		ldr	r2, [r3]
 4190 0046 22F00102 		bic	r2, r2, #1
 4191 004a 1A60     		str	r2, [r3]
 4192              	.L535:
 4193 004c 9DB9     		cbnz	r5, .L536
 4194 004e 0123     		movs	r3, #1
 4195 0050 84F83E30 		strb	r3, [r4, #62]
 4196              	.L537:
 4197 0054 0020     		movs	r0, #0
 4198 0056 38BD     		pop	{r3, r4, r5, pc}
 4199              	.L533:
 4200 0058 196A     		ldr	r1, [r3, #32]
 4201 005a 41F21112 		movw	r2, #4369
 4202 005e 1142     		tst	r1, r2
 4203 0060 E5D1     		bne	.L534
 4204 0062 196A     		ldr	r1, [r3, #32]
 4205 0064 40F24442 		movw	r2, #1092
 4206 0068 1142     		tst	r1, r2
 4207 006a E0D1     		bne	.L534
 4208 006c 5A6C     		ldr	r2, [r3, #68]
 4209 006e 22F40042 		bic	r2, r2, #32768
 4210 0072 5A64     		str	r2, [r3, #68]
 4211 0074 DBE7     		b	.L534
 4212              	.L536:
 4213 0076 042D     		cmp	r5, #4
 4214 0078 05D0     		beq	.L541
 4215 007a 082D     		cmp	r5, #8
 4216 007c 07D0     		beq	.L542
 4217 007e 0123     		movs	r3, #1
 4218 0080 84F84130 		strb	r3, [r4, #65]
 4219 0084 E6E7     		b	.L537
 4220              	.L541:
 4221 0086 0123     		movs	r3, #1
 4222 0088 84F83F30 		strb	r3, [r4, #63]
 4223 008c E2E7     		b	.L537
 4224              	.L542:
 4225 008e 0123     		movs	r3, #1
 4226 0090 84F84030 		strb	r3, [r4, #64]
 4227 0094 DEE7     		b	.L537
 4228              	.L544:
 4229 0096 00BF     		.align	2
 4230              	.L543:
 4231 0098 002C0140 		.word	1073818624
 4233              		.section	.text.HAL_TIM_OC_Start_IT,"ax",%progbits
ARM GAS  /var/folders/t4/6192qx0n3zgdnvcwt906k_mw0000gn/T//cc5P7dKr.s 			page 72


 4234              		.align	1
 4235              		.global	HAL_TIM_OC_Start_IT
 4236              		.syntax unified
 4237              		.thumb
 4238              		.thumb_func
 4240              	HAL_TIM_OC_Start_IT:
 4241              		@ args = 0, pretend = 0, frame = 0
 4242              		@ frame_needed = 0, uses_anonymous_args = 0
 4243 0000 10B5     		push	{r4, lr}
 4244 0002 0446     		mov	r4, r0
 4245 0004 0846     		mov	r0, r1
 4246 0006 0029     		cmp	r1, #0
 4247 0008 44D1     		bne	.L546
 4248 000a 94F83E30 		ldrb	r3, [r4, #62]	@ zero_extendqisi2
 4249 000e DBB2     		uxtb	r3, r3
 4250 0010 013B     		subs	r3, r3, #1
 4251 0012 18BF     		it	ne
 4252 0014 0123     		movne	r3, #1
 4253              	.L547:
 4254 0016 002B     		cmp	r3, #0
 4255 0018 40F09F80 		bne	.L564
 4256 001c 0028     		cmp	r0, #0
 4257 001e 52D1     		bne	.L551
 4258 0020 0223     		movs	r3, #2
 4259 0022 84F83E30 		strb	r3, [r4, #62]
 4260              	.L552:
 4261 0026 2268     		ldr	r2, [r4]
 4262 0028 D368     		ldr	r3, [r2, #12]
 4263 002a 43F00203 		orr	r3, r3, #2
 4264 002e D360     		str	r3, [r2, #12]
 4265              	.L559:
 4266 0030 0122     		movs	r2, #1
 4267 0032 0146     		mov	r1, r0
 4268 0034 2068     		ldr	r0, [r4]
 4269 0036 FFF7FEFF 		bl	TIM_CCxChannelCmd
 4270 003a 2368     		ldr	r3, [r4]
 4271 003c 4A4A     		ldr	r2, .L575
 4272 003e 9342     		cmp	r3, r2
 4273 0040 0BD0     		beq	.L560
 4274 0042 02F5A052 		add	r2, r2, #5120
 4275 0046 9342     		cmp	r3, r2
 4276 0048 07D0     		beq	.L560
 4277 004a 02F58062 		add	r2, r2, #1024
 4278 004e 9342     		cmp	r3, r2
 4279 0050 03D0     		beq	.L560
 4280 0052 02F58062 		add	r2, r2, #1024
 4281 0056 9342     		cmp	r3, r2
 4282 0058 03D1     		bne	.L561
 4283              	.L560:
 4284 005a 5A6C     		ldr	r2, [r3, #68]
 4285 005c 42F40042 		orr	r2, r2, #32768
 4286 0060 5A64     		str	r2, [r3, #68]
 4287              	.L561:
 4288 0062 2368     		ldr	r3, [r4]
 4289 0064 404A     		ldr	r2, .L575
 4290 0066 9342     		cmp	r3, r2
 4291 0068 6CD0     		beq	.L562
ARM GAS  /var/folders/t4/6192qx0n3zgdnvcwt906k_mw0000gn/T//cc5P7dKr.s 			page 73


 4292 006a B3F1804F 		cmp	r3, #1073741824
 4293 006e 69D0     		beq	.L562
 4294 0070 A2F59432 		sub	r2, r2, #75776
 4295 0074 9342     		cmp	r3, r2
 4296 0076 65D0     		beq	.L562
 4297 0078 02F58062 		add	r2, r2, #1024
 4298 007c 9342     		cmp	r3, r2
 4299 007e 61D0     		beq	.L562
 4300 0080 02F59C32 		add	r2, r2, #79872
 4301 0084 9342     		cmp	r3, r2
 4302 0086 5DD0     		beq	.L562
 4303 0088 1A68     		ldr	r2, [r3]
 4304 008a 42F00102 		orr	r2, r2, #1
 4305 008e 1A60     		str	r2, [r3]
 4306 0090 0020     		movs	r0, #0
 4307 0092 61E0     		b	.L550
 4308              	.L546:
 4309 0094 0429     		cmp	r1, #4
 4310 0096 08D0     		beq	.L571
 4311 0098 0829     		cmp	r1, #8
 4312 009a 0DD0     		beq	.L572
 4313 009c 94F84130 		ldrb	r3, [r4, #65]	@ zero_extendqisi2
 4314 00a0 DBB2     		uxtb	r3, r3
 4315 00a2 013B     		subs	r3, r3, #1
 4316 00a4 18BF     		it	ne
 4317 00a6 0123     		movne	r3, #1
 4318 00a8 B5E7     		b	.L547
 4319              	.L571:
 4320 00aa 94F83F30 		ldrb	r3, [r4, #63]	@ zero_extendqisi2
 4321 00ae DBB2     		uxtb	r3, r3
 4322 00b0 013B     		subs	r3, r3, #1
 4323 00b2 18BF     		it	ne
 4324 00b4 0123     		movne	r3, #1
 4325 00b6 AEE7     		b	.L547
 4326              	.L572:
 4327 00b8 94F84030 		ldrb	r3, [r4, #64]	@ zero_extendqisi2
 4328 00bc DBB2     		uxtb	r3, r3
 4329 00be 013B     		subs	r3, r3, #1
 4330 00c0 18BF     		it	ne
 4331 00c2 0123     		movne	r3, #1
 4332 00c4 A7E7     		b	.L547
 4333              	.L551:
 4334 00c6 0428     		cmp	r0, #4
 4335 00c8 24D0     		beq	.L573
 4336 00ca 0828     		cmp	r0, #8
 4337 00cc 2BD0     		beq	.L574
 4338 00ce 0223     		movs	r3, #2
 4339 00d0 84F84130 		strb	r3, [r4, #65]
 4340 00d4 0C28     		cmp	r0, #12
 4341 00d6 42D8     		bhi	.L565
 4342 00d8 01A3     		adr	r3, .L558
 4343 00da 53F820F0 		ldr	pc, [r3, r0, lsl #2]
 4344 00de 00BF     		.p2align 2
 4345              	.L558:
 4346 00e0 27000000 		.word	.L552+1
 4347 00e4 5F010000 		.word	.L565+1
 4348 00e8 5F010000 		.word	.L565+1
ARM GAS  /var/folders/t4/6192qx0n3zgdnvcwt906k_mw0000gn/T//cc5P7dKr.s 			page 74


 4349 00ec 5F010000 		.word	.L565+1
 4350 00f0 1B010000 		.word	.L554+1
 4351 00f4 5F010000 		.word	.L565+1
 4352 00f8 5F010000 		.word	.L565+1
 4353 00fc 5F010000 		.word	.L565+1
 4354 0100 2D010000 		.word	.L556+1
 4355 0104 5F010000 		.word	.L565+1
 4356 0108 5F010000 		.word	.L565+1
 4357 010c 5F010000 		.word	.L565+1
 4358 0110 39010000 		.word	.L557+1
 4359              		.p2align 1
 4360              	.L573:
 4361 0114 0223     		movs	r3, #2
 4362 0116 84F83F30 		strb	r3, [r4, #63]
 4363              	.L554:
 4364 011a 2268     		ldr	r2, [r4]
 4365 011c D368     		ldr	r3, [r2, #12]
 4366 011e 43F00403 		orr	r3, r3, #4
 4367 0122 D360     		str	r3, [r2, #12]
 4368 0124 84E7     		b	.L559
 4369              	.L574:
 4370 0126 0223     		movs	r3, #2
 4371 0128 84F84030 		strb	r3, [r4, #64]
 4372              	.L556:
 4373 012c 2268     		ldr	r2, [r4]
 4374 012e D368     		ldr	r3, [r2, #12]
 4375 0130 43F00803 		orr	r3, r3, #8
 4376 0134 D360     		str	r3, [r2, #12]
 4377 0136 7BE7     		b	.L559
 4378              	.L557:
 4379 0138 2268     		ldr	r2, [r4]
 4380 013a D368     		ldr	r3, [r2, #12]
 4381 013c 43F01003 		orr	r3, r3, #16
 4382 0140 D360     		str	r3, [r2, #12]
 4383 0142 75E7     		b	.L559
 4384              	.L562:
 4385 0144 9A68     		ldr	r2, [r3, #8]
 4386 0146 02F00702 		and	r2, r2, #7
 4387 014a 062A     		cmp	r2, #6
 4388 014c 09D0     		beq	.L566
 4389 014e 1A68     		ldr	r2, [r3]
 4390 0150 42F00102 		orr	r2, r2, #1
 4391 0154 1A60     		str	r2, [r3]
 4392 0156 0020     		movs	r0, #0
 4393              	.L550:
 4394 0158 10BD     		pop	{r4, pc}
 4395              	.L564:
 4396 015a 0120     		movs	r0, #1
 4397 015c FCE7     		b	.L550
 4398              	.L565:
 4399 015e 0120     		movs	r0, #1
 4400 0160 FAE7     		b	.L550
 4401              	.L566:
 4402 0162 0020     		movs	r0, #0
 4403 0164 F8E7     		b	.L550
 4404              	.L576:
 4405 0166 00BF     		.align	2
ARM GAS  /var/folders/t4/6192qx0n3zgdnvcwt906k_mw0000gn/T//cc5P7dKr.s 			page 75


 4406              	.L575:
 4407 0168 002C0140 		.word	1073818624
 4409              		.section	.text.HAL_TIM_OC_Stop_IT,"ax",%progbits
 4410              		.align	1
 4411              		.global	HAL_TIM_OC_Stop_IT
 4412              		.syntax unified
 4413              		.thumb
 4414              		.thumb_func
 4416              	HAL_TIM_OC_Stop_IT:
 4417              		@ args = 0, pretend = 0, frame = 0
 4418              		@ frame_needed = 0, uses_anonymous_args = 0
 4419 0000 38B5     		push	{r3, r4, r5, lr}
 4420 0002 0546     		mov	r5, r0
 4421 0004 0C46     		mov	r4, r1
 4422 0006 0C29     		cmp	r1, #12
 4423 0008 6BD8     		bhi	.L591
 4424 000a DFE801F0 		tbb	[pc, r1]
 4425              	.L580:
 4426 000e 07       		.byte	(.L583-.L580)/2
 4427 000f 6A       		.byte	(.L591-.L580)/2
 4428 0010 6A       		.byte	(.L591-.L580)/2
 4429 0011 6A       		.byte	(.L591-.L580)/2
 4430 0012 36       		.byte	(.L582-.L580)/2
 4431 0013 6A       		.byte	(.L591-.L580)/2
 4432 0014 6A       		.byte	(.L591-.L580)/2
 4433 0015 6A       		.byte	(.L591-.L580)/2
 4434 0016 3C       		.byte	(.L581-.L580)/2
 4435 0017 6A       		.byte	(.L591-.L580)/2
 4436 0018 6A       		.byte	(.L591-.L580)/2
 4437 0019 6A       		.byte	(.L591-.L580)/2
 4438 001a 42       		.byte	(.L579-.L580)/2
 4439 001b 00       		.p2align 1
 4440              	.L583:
 4441 001c 0268     		ldr	r2, [r0]
 4442 001e D368     		ldr	r3, [r2, #12]
 4443 0020 23F00203 		bic	r3, r3, #2
 4444 0024 D360     		str	r3, [r2, #12]
 4445              	.L584:
 4446 0026 0022     		movs	r2, #0
 4447 0028 2146     		mov	r1, r4
 4448 002a 2868     		ldr	r0, [r5]
 4449 002c FFF7FEFF 		bl	TIM_CCxChannelCmd
 4450 0030 2B68     		ldr	r3, [r5]
 4451 0032 2D4A     		ldr	r2, .L595
 4452 0034 9342     		cmp	r3, r2
 4453 0036 32D0     		beq	.L585
 4454 0038 02F5A052 		add	r2, r2, #5120
 4455 003c 9342     		cmp	r3, r2
 4456 003e 2ED0     		beq	.L585
 4457 0040 02F58062 		add	r2, r2, #1024
 4458 0044 9342     		cmp	r3, r2
 4459 0046 2AD0     		beq	.L585
 4460 0048 02F58062 		add	r2, r2, #1024
 4461 004c 9342     		cmp	r3, r2
 4462 004e 26D0     		beq	.L585
 4463              	.L586:
 4464 0050 2B68     		ldr	r3, [r5]
ARM GAS  /var/folders/t4/6192qx0n3zgdnvcwt906k_mw0000gn/T//cc5P7dKr.s 			page 76


 4465 0052 196A     		ldr	r1, [r3, #32]
 4466 0054 41F21112 		movw	r2, #4369
 4467 0058 1142     		tst	r1, r2
 4468 005a 08D1     		bne	.L587
 4469 005c 196A     		ldr	r1, [r3, #32]
 4470 005e 40F24442 		movw	r2, #1092
 4471 0062 1142     		tst	r1, r2
 4472 0064 03D1     		bne	.L587
 4473 0066 1A68     		ldr	r2, [r3]
 4474 0068 22F00102 		bic	r2, r2, #1
 4475 006c 1A60     		str	r2, [r3]
 4476              	.L587:
 4477 006e 2CBB     		cbnz	r4, .L588
 4478 0070 0123     		movs	r3, #1
 4479 0072 85F83E30 		strb	r3, [r5, #62]
 4480 0076 0020     		movs	r0, #0
 4481 0078 34E0     		b	.L578
 4482              	.L582:
 4483 007a 0268     		ldr	r2, [r0]
 4484 007c D368     		ldr	r3, [r2, #12]
 4485 007e 23F00403 		bic	r3, r3, #4
 4486 0082 D360     		str	r3, [r2, #12]
 4487 0084 CFE7     		b	.L584
 4488              	.L581:
 4489 0086 0268     		ldr	r2, [r0]
 4490 0088 D368     		ldr	r3, [r2, #12]
 4491 008a 23F00803 		bic	r3, r3, #8
 4492 008e D360     		str	r3, [r2, #12]
 4493 0090 C9E7     		b	.L584
 4494              	.L579:
 4495 0092 0268     		ldr	r2, [r0]
 4496 0094 D368     		ldr	r3, [r2, #12]
 4497 0096 23F01003 		bic	r3, r3, #16
 4498 009a D360     		str	r3, [r2, #12]
 4499 009c C3E7     		b	.L584
 4500              	.L585:
 4501 009e 196A     		ldr	r1, [r3, #32]
 4502 00a0 41F21112 		movw	r2, #4369
 4503 00a4 1142     		tst	r1, r2
 4504 00a6 D3D1     		bne	.L586
 4505 00a8 196A     		ldr	r1, [r3, #32]
 4506 00aa 40F24442 		movw	r2, #1092
 4507 00ae 1142     		tst	r1, r2
 4508 00b0 CED1     		bne	.L586
 4509 00b2 5A6C     		ldr	r2, [r3, #68]
 4510 00b4 22F40042 		bic	r2, r2, #32768
 4511 00b8 5A64     		str	r2, [r3, #68]
 4512 00ba C9E7     		b	.L586
 4513              	.L588:
 4514 00bc 042C     		cmp	r4, #4
 4515 00be 06D0     		beq	.L593
 4516 00c0 082C     		cmp	r4, #8
 4517 00c2 09D0     		beq	.L594
 4518 00c4 0123     		movs	r3, #1
 4519 00c6 85F84130 		strb	r3, [r5, #65]
 4520 00ca 0020     		movs	r0, #0
 4521 00cc 0AE0     		b	.L578
ARM GAS  /var/folders/t4/6192qx0n3zgdnvcwt906k_mw0000gn/T//cc5P7dKr.s 			page 77


 4522              	.L593:
 4523 00ce 0123     		movs	r3, #1
 4524 00d0 85F83F30 		strb	r3, [r5, #63]
 4525 00d4 0020     		movs	r0, #0
 4526 00d6 05E0     		b	.L578
 4527              	.L594:
 4528 00d8 0123     		movs	r3, #1
 4529 00da 85F84030 		strb	r3, [r5, #64]
 4530 00de 0020     		movs	r0, #0
 4531 00e0 00E0     		b	.L578
 4532              	.L591:
 4533 00e2 0120     		movs	r0, #1
 4534              	.L578:
 4535 00e4 38BD     		pop	{r3, r4, r5, pc}
 4536              	.L596:
 4537 00e6 00BF     		.align	2
 4538              	.L595:
 4539 00e8 002C0140 		.word	1073818624
 4541              		.section	.text.HAL_TIM_OC_Start_DMA,"ax",%progbits
 4542              		.align	1
 4543              		.global	HAL_TIM_OC_Start_DMA
 4544              		.syntax unified
 4545              		.thumb
 4546              		.thumb_func
 4548              	HAL_TIM_OC_Start_DMA:
 4549              		@ args = 0, pretend = 0, frame = 0
 4550              		@ frame_needed = 0, uses_anonymous_args = 0
 4551 0000 70B5     		push	{r4, r5, r6, lr}
 4552 0002 0446     		mov	r4, r0
 4553 0004 1646     		mov	r6, r2
 4554 0006 0D46     		mov	r5, r1
 4555 0008 0029     		cmp	r1, #0
 4556 000a 6FD1     		bne	.L598
 4557 000c 90F83E00 		ldrb	r0, [r0, #62]	@ zero_extendqisi2
 4558 0010 C0B2     		uxtb	r0, r0
 4559 0012 0228     		cmp	r0, #2
 4560 0014 14BF     		ite	ne
 4561 0016 0020     		movne	r0, #0
 4562 0018 0120     		moveq	r0, #1
 4563              	.L599:
 4564 001a 0028     		cmp	r0, #0
 4565 001c 40F01981 		bne	.L620
 4566 0020 002D     		cmp	r5, #0
 4567 0022 7FD1     		bne	.L603
 4568 0024 94F83E20 		ldrb	r2, [r4, #62]	@ zero_extendqisi2
 4569 0028 D2B2     		uxtb	r2, r2
 4570 002a 012A     		cmp	r2, #1
 4571 002c 14BF     		ite	ne
 4572 002e 0022     		movne	r2, #0
 4573 0030 0122     		moveq	r2, #1
 4574              	.L604:
 4575 0032 002A     		cmp	r2, #0
 4576 0034 00F00F81 		beq	.L621
 4577 0038 002E     		cmp	r6, #0
 4578 003a 00F00E81 		beq	.L622
 4579 003e 002B     		cmp	r3, #0
 4580 0040 00F00D81 		beq	.L623
ARM GAS  /var/folders/t4/6192qx0n3zgdnvcwt906k_mw0000gn/T//cc5P7dKr.s 			page 78


 4581 0044 002D     		cmp	r5, #0
 4582 0046 40F08980 		bne	.L607
 4583 004a 0222     		movs	r2, #2
 4584 004c 84F83E20 		strb	r2, [r4, #62]
 4585              	.L608:
 4586 0050 626A     		ldr	r2, [r4, #36]
 4587 0052 8A49     		ldr	r1, .L640
 4588 0054 9162     		str	r1, [r2, #40]
 4589 0056 626A     		ldr	r2, [r4, #36]
 4590 0058 8949     		ldr	r1, .L640+4
 4591 005a D162     		str	r1, [r2, #44]
 4592 005c 626A     		ldr	r2, [r4, #36]
 4593 005e 8949     		ldr	r1, .L640+8
 4594 0060 1163     		str	r1, [r2, #48]
 4595 0062 2268     		ldr	r2, [r4]
 4596 0064 3432     		adds	r2, r2, #52
 4597 0066 3146     		mov	r1, r6
 4598 0068 606A     		ldr	r0, [r4, #36]
 4599 006a FFF7FEFF 		bl	HAL_DMA_Start_IT
 4600 006e 0028     		cmp	r0, #0
 4601 0070 40F0F980 		bne	.L625
 4602 0074 2268     		ldr	r2, [r4]
 4603 0076 D368     		ldr	r3, [r2, #12]
 4604 0078 43F40073 		orr	r3, r3, #512
 4605 007c D360     		str	r3, [r2, #12]
 4606              	.L615:
 4607 007e 0122     		movs	r2, #1
 4608 0080 2946     		mov	r1, r5
 4609 0082 2068     		ldr	r0, [r4]
 4610 0084 FFF7FEFF 		bl	TIM_CCxChannelCmd
 4611 0088 2368     		ldr	r3, [r4]
 4612 008a 7F4A     		ldr	r2, .L640+12
 4613 008c 9342     		cmp	r3, r2
 4614 008e 0BD0     		beq	.L616
 4615 0090 02F5A052 		add	r2, r2, #5120
 4616 0094 9342     		cmp	r3, r2
 4617 0096 07D0     		beq	.L616
 4618 0098 02F58062 		add	r2, r2, #1024
 4619 009c 9342     		cmp	r3, r2
 4620 009e 03D0     		beq	.L616
 4621 00a0 02F58062 		add	r2, r2, #1024
 4622 00a4 9342     		cmp	r3, r2
 4623 00a6 03D1     		bne	.L617
 4624              	.L616:
 4625 00a8 5A6C     		ldr	r2, [r3, #68]
 4626 00aa 42F40042 		orr	r2, r2, #32768
 4627 00ae 5A64     		str	r2, [r3, #68]
 4628              	.L617:
 4629 00b0 2368     		ldr	r3, [r4]
 4630 00b2 754A     		ldr	r2, .L640+12
 4631 00b4 9342     		cmp	r3, r2
 4632 00b6 00F0C180 		beq	.L618
 4633 00ba B3F1804F 		cmp	r3, #1073741824
 4634 00be 00F0BD80 		beq	.L618
 4635 00c2 A2F59432 		sub	r2, r2, #75776
 4636 00c6 9342     		cmp	r3, r2
 4637 00c8 00F0B880 		beq	.L618
ARM GAS  /var/folders/t4/6192qx0n3zgdnvcwt906k_mw0000gn/T//cc5P7dKr.s 			page 79


 4638 00cc 02F58062 		add	r2, r2, #1024
 4639 00d0 9342     		cmp	r3, r2
 4640 00d2 00F0B380 		beq	.L618
 4641 00d6 02F59C32 		add	r2, r2, #79872
 4642 00da 9342     		cmp	r3, r2
 4643 00dc 00F0AE80 		beq	.L618
 4644 00e0 1A68     		ldr	r2, [r3]
 4645 00e2 42F00102 		orr	r2, r2, #1
 4646 00e6 1A60     		str	r2, [r3]
 4647 00e8 0020     		movs	r0, #0
 4648 00ea B5E0     		b	.L602
 4649              	.L598:
 4650 00ec 0429     		cmp	r1, #4
 4651 00ee 09D0     		beq	.L634
 4652 00f0 0829     		cmp	r1, #8
 4653 00f2 0FD0     		beq	.L635
 4654 00f4 90F84100 		ldrb	r0, [r0, #65]	@ zero_extendqisi2
 4655 00f8 C0B2     		uxtb	r0, r0
 4656 00fa 0228     		cmp	r0, #2
 4657 00fc 14BF     		ite	ne
 4658 00fe 0020     		movne	r0, #0
 4659 0100 0120     		moveq	r0, #1
 4660 0102 8AE7     		b	.L599
 4661              	.L634:
 4662 0104 90F83F00 		ldrb	r0, [r0, #63]	@ zero_extendqisi2
 4663 0108 C0B2     		uxtb	r0, r0
 4664 010a 0228     		cmp	r0, #2
 4665 010c 14BF     		ite	ne
 4666 010e 0020     		movne	r0, #0
 4667 0110 0120     		moveq	r0, #1
 4668 0112 82E7     		b	.L599
 4669              	.L635:
 4670 0114 90F84000 		ldrb	r0, [r0, #64]	@ zero_extendqisi2
 4671 0118 C0B2     		uxtb	r0, r0
 4672 011a 0228     		cmp	r0, #2
 4673 011c 14BF     		ite	ne
 4674 011e 0020     		movne	r0, #0
 4675 0120 0120     		moveq	r0, #1
 4676 0122 7AE7     		b	.L599
 4677              	.L603:
 4678 0124 042D     		cmp	r5, #4
 4679 0126 09D0     		beq	.L636
 4680 0128 082D     		cmp	r5, #8
 4681 012a 0FD0     		beq	.L637
 4682 012c 94F84120 		ldrb	r2, [r4, #65]	@ zero_extendqisi2
 4683 0130 D2B2     		uxtb	r2, r2
 4684 0132 012A     		cmp	r2, #1
 4685 0134 14BF     		ite	ne
 4686 0136 0022     		movne	r2, #0
 4687 0138 0122     		moveq	r2, #1
 4688 013a 7AE7     		b	.L604
 4689              	.L636:
 4690 013c 94F83F20 		ldrb	r2, [r4, #63]	@ zero_extendqisi2
 4691 0140 D2B2     		uxtb	r2, r2
 4692 0142 012A     		cmp	r2, #1
 4693 0144 14BF     		ite	ne
 4694 0146 0022     		movne	r2, #0
ARM GAS  /var/folders/t4/6192qx0n3zgdnvcwt906k_mw0000gn/T//cc5P7dKr.s 			page 80


 4695 0148 0122     		moveq	r2, #1
 4696 014a 72E7     		b	.L604
 4697              	.L637:
 4698 014c 94F84020 		ldrb	r2, [r4, #64]	@ zero_extendqisi2
 4699 0150 D2B2     		uxtb	r2, r2
 4700 0152 012A     		cmp	r2, #1
 4701 0154 14BF     		ite	ne
 4702 0156 0022     		movne	r2, #0
 4703 0158 0122     		moveq	r2, #1
 4704 015a 6AE7     		b	.L604
 4705              	.L607:
 4706 015c 042D     		cmp	r5, #4
 4707 015e 23D0     		beq	.L638
 4708 0160 082D     		cmp	r5, #8
 4709 0162 3BD0     		beq	.L639
 4710 0164 0222     		movs	r2, #2
 4711 0166 84F84120 		strb	r2, [r4, #65]
 4712 016a 0C2D     		cmp	r5, #12
 4713 016c 79D8     		bhi	.L624
 4714 016e 01A2     		adr	r2, .L614
 4715 0170 52F825F0 		ldr	pc, [r2, r5, lsl #2]
 4716              		.p2align 2
 4717              	.L614:
 4718 0174 51000000 		.word	.L608+1
 4719 0178 63020000 		.word	.L624+1
 4720 017c 63020000 		.word	.L624+1
 4721 0180 63020000 		.word	.L624+1
 4722 0184 AF010000 		.word	.L610+1
 4723 0188 63020000 		.word	.L624+1
 4724 018c 63020000 		.word	.L624+1
 4725 0190 63020000 		.word	.L624+1
 4726 0194 E3010000 		.word	.L612+1
 4727 0198 63020000 		.word	.L624+1
 4728 019c 63020000 		.word	.L624+1
 4729 01a0 63020000 		.word	.L624+1
 4730 01a4 11020000 		.word	.L613+1
 4731              		.p2align 1
 4732              	.L638:
 4733 01a8 0222     		movs	r2, #2
 4734 01aa 84F83F20 		strb	r2, [r4, #63]
 4735              	.L610:
 4736 01ae A26A     		ldr	r2, [r4, #40]
 4737 01b0 3249     		ldr	r1, .L640
 4738 01b2 9162     		str	r1, [r2, #40]
 4739 01b4 A26A     		ldr	r2, [r4, #40]
 4740 01b6 3249     		ldr	r1, .L640+4
 4741 01b8 D162     		str	r1, [r2, #44]
 4742 01ba A26A     		ldr	r2, [r4, #40]
 4743 01bc 3149     		ldr	r1, .L640+8
 4744 01be 1163     		str	r1, [r2, #48]
 4745 01c0 2268     		ldr	r2, [r4]
 4746 01c2 3832     		adds	r2, r2, #56
 4747 01c4 3146     		mov	r1, r6
 4748 01c6 A06A     		ldr	r0, [r4, #40]
 4749 01c8 FFF7FEFF 		bl	HAL_DMA_Start_IT
 4750 01cc 0028     		cmp	r0, #0
 4751 01ce 4CD1     		bne	.L626
ARM GAS  /var/folders/t4/6192qx0n3zgdnvcwt906k_mw0000gn/T//cc5P7dKr.s 			page 81


 4752 01d0 2268     		ldr	r2, [r4]
 4753 01d2 D368     		ldr	r3, [r2, #12]
 4754 01d4 43F48063 		orr	r3, r3, #1024
 4755 01d8 D360     		str	r3, [r2, #12]
 4756 01da 50E7     		b	.L615
 4757              	.L639:
 4758 01dc 0222     		movs	r2, #2
 4759 01de 84F84020 		strb	r2, [r4, #64]
 4760              	.L612:
 4761 01e2 E26A     		ldr	r2, [r4, #44]
 4762 01e4 2549     		ldr	r1, .L640
 4763 01e6 9162     		str	r1, [r2, #40]
 4764 01e8 E26A     		ldr	r2, [r4, #44]
 4765 01ea 2549     		ldr	r1, .L640+4
 4766 01ec D162     		str	r1, [r2, #44]
 4767 01ee E26A     		ldr	r2, [r4, #44]
 4768 01f0 2449     		ldr	r1, .L640+8
 4769 01f2 1163     		str	r1, [r2, #48]
 4770 01f4 2268     		ldr	r2, [r4]
 4771 01f6 3C32     		adds	r2, r2, #60
 4772 01f8 3146     		mov	r1, r6
 4773 01fa E06A     		ldr	r0, [r4, #44]
 4774 01fc FFF7FEFF 		bl	HAL_DMA_Start_IT
 4775 0200 0028     		cmp	r0, #0
 4776 0202 34D1     		bne	.L627
 4777 0204 2268     		ldr	r2, [r4]
 4778 0206 D368     		ldr	r3, [r2, #12]
 4779 0208 43F40063 		orr	r3, r3, #2048
 4780 020c D360     		str	r3, [r2, #12]
 4781 020e 36E7     		b	.L615
 4782              	.L613:
 4783 0210 226B     		ldr	r2, [r4, #48]
 4784 0212 1A49     		ldr	r1, .L640
 4785 0214 9162     		str	r1, [r2, #40]
 4786 0216 226B     		ldr	r2, [r4, #48]
 4787 0218 1949     		ldr	r1, .L640+4
 4788 021a D162     		str	r1, [r2, #44]
 4789 021c 226B     		ldr	r2, [r4, #48]
 4790 021e 1949     		ldr	r1, .L640+8
 4791 0220 1163     		str	r1, [r2, #48]
 4792 0222 2268     		ldr	r2, [r4]
 4793 0224 4032     		adds	r2, r2, #64
 4794 0226 3146     		mov	r1, r6
 4795 0228 206B     		ldr	r0, [r4, #48]
 4796 022a FFF7FEFF 		bl	HAL_DMA_Start_IT
 4797 022e 00BB     		cbnz	r0, .L628
 4798 0230 2268     		ldr	r2, [r4]
 4799 0232 D368     		ldr	r3, [r2, #12]
 4800 0234 43F48053 		orr	r3, r3, #4096
 4801 0238 D360     		str	r3, [r2, #12]
 4802 023a 20E7     		b	.L615
 4803              	.L618:
 4804 023c 9A68     		ldr	r2, [r3, #8]
 4805 023e 02F00702 		and	r2, r2, #7
 4806 0242 062A     		cmp	r2, #6
 4807 0244 17D0     		beq	.L629
 4808 0246 1A68     		ldr	r2, [r3]
ARM GAS  /var/folders/t4/6192qx0n3zgdnvcwt906k_mw0000gn/T//cc5P7dKr.s 			page 82


 4809 0248 42F00102 		orr	r2, r2, #1
 4810 024c 1A60     		str	r2, [r3]
 4811 024e 0020     		movs	r0, #0
 4812 0250 02E0     		b	.L602
 4813              	.L620:
 4814 0252 0220     		movs	r0, #2
 4815 0254 00E0     		b	.L602
 4816              	.L621:
 4817 0256 0120     		movs	r0, #1
 4818              	.L602:
 4819 0258 70BD     		pop	{r4, r5, r6, pc}
 4820              	.L622:
 4821 025a 0120     		movs	r0, #1
 4822 025c FCE7     		b	.L602
 4823              	.L623:
 4824 025e 0120     		movs	r0, #1
 4825 0260 FAE7     		b	.L602
 4826              	.L624:
 4827 0262 0120     		movs	r0, #1
 4828 0264 F8E7     		b	.L602
 4829              	.L625:
 4830 0266 0120     		movs	r0, #1
 4831 0268 F6E7     		b	.L602
 4832              	.L626:
 4833 026a 0120     		movs	r0, #1
 4834 026c F4E7     		b	.L602
 4835              	.L627:
 4836 026e 0120     		movs	r0, #1
 4837 0270 F2E7     		b	.L602
 4838              	.L628:
 4839 0272 0120     		movs	r0, #1
 4840 0274 F0E7     		b	.L602
 4841              	.L629:
 4842 0276 0020     		movs	r0, #0
 4843 0278 EEE7     		b	.L602
 4844              	.L641:
 4845 027a 00BF     		.align	2
 4846              	.L640:
 4847 027c 00000000 		.word	TIM_DMADelayPulseCplt
 4848 0280 00000000 		.word	TIM_DMADelayPulseHalfCplt
 4849 0284 00000000 		.word	TIM_DMAError
 4850 0288 002C0140 		.word	1073818624
 4852              		.section	.text.HAL_TIM_OC_Stop_DMA,"ax",%progbits
 4853              		.align	1
 4854              		.global	HAL_TIM_OC_Stop_DMA
 4855              		.syntax unified
 4856              		.thumb
 4857              		.thumb_func
 4859              	HAL_TIM_OC_Stop_DMA:
 4860              		@ args = 0, pretend = 0, frame = 0
 4861              		@ frame_needed = 0, uses_anonymous_args = 0
 4862 0000 38B5     		push	{r3, r4, r5, lr}
 4863 0002 0446     		mov	r4, r0
 4864 0004 0D46     		mov	r5, r1
 4865 0006 0C29     		cmp	r1, #12
 4866 0008 78D8     		bhi	.L656
 4867 000a DFE801F0 		tbb	[pc, r1]
ARM GAS  /var/folders/t4/6192qx0n3zgdnvcwt906k_mw0000gn/T//cc5P7dKr.s 			page 83


 4868              	.L645:
 4869 000e 07       		.byte	(.L648-.L645)/2
 4870 000f 77       		.byte	(.L656-.L645)/2
 4871 0010 77       		.byte	(.L656-.L645)/2
 4872 0011 77       		.byte	(.L656-.L645)/2
 4873 0012 3A       		.byte	(.L647-.L645)/2
 4874 0013 77       		.byte	(.L656-.L645)/2
 4875 0014 77       		.byte	(.L656-.L645)/2
 4876 0015 77       		.byte	(.L656-.L645)/2
 4877 0016 43       		.byte	(.L646-.L645)/2
 4878 0017 77       		.byte	(.L656-.L645)/2
 4879 0018 77       		.byte	(.L656-.L645)/2
 4880 0019 77       		.byte	(.L656-.L645)/2
 4881 001a 4C       		.byte	(.L644-.L645)/2
 4882 001b 00       		.p2align 1
 4883              	.L648:
 4884 001c 0268     		ldr	r2, [r0]
 4885 001e D368     		ldr	r3, [r2, #12]
 4886 0020 23F40073 		bic	r3, r3, #512
 4887 0024 D360     		str	r3, [r2, #12]
 4888 0026 406A     		ldr	r0, [r0, #36]
 4889 0028 FFF7FEFF 		bl	HAL_DMA_Abort_IT
 4890              	.L649:
 4891 002c 0022     		movs	r2, #0
 4892 002e 2946     		mov	r1, r5
 4893 0030 2068     		ldr	r0, [r4]
 4894 0032 FFF7FEFF 		bl	TIM_CCxChannelCmd
 4895 0036 2368     		ldr	r3, [r4]
 4896 0038 314A     		ldr	r2, .L660
 4897 003a 9342     		cmp	r3, r2
 4898 003c 3CD0     		beq	.L650
 4899 003e 02F5A052 		add	r2, r2, #5120
 4900 0042 9342     		cmp	r3, r2
 4901 0044 38D0     		beq	.L650
 4902 0046 02F58062 		add	r2, r2, #1024
 4903 004a 9342     		cmp	r3, r2
 4904 004c 34D0     		beq	.L650
 4905 004e 02F58062 		add	r2, r2, #1024
 4906 0052 9342     		cmp	r3, r2
 4907 0054 30D0     		beq	.L650
 4908              	.L651:
 4909 0056 2368     		ldr	r3, [r4]
 4910 0058 196A     		ldr	r1, [r3, #32]
 4911 005a 41F21112 		movw	r2, #4369
 4912 005e 1142     		tst	r1, r2
 4913 0060 08D1     		bne	.L652
 4914 0062 196A     		ldr	r1, [r3, #32]
 4915 0064 40F24442 		movw	r2, #1092
 4916 0068 1142     		tst	r1, r2
 4917 006a 03D1     		bne	.L652
 4918 006c 1A68     		ldr	r2, [r3]
 4919 006e 22F00102 		bic	r2, r2, #1
 4920 0072 1A60     		str	r2, [r3]
 4921              	.L652:
 4922 0074 002D     		cmp	r5, #0
 4923 0076 2ED1     		bne	.L653
 4924 0078 0123     		movs	r3, #1
ARM GAS  /var/folders/t4/6192qx0n3zgdnvcwt906k_mw0000gn/T//cc5P7dKr.s 			page 84


 4925 007a 84F83E30 		strb	r3, [r4, #62]
 4926 007e 0020     		movs	r0, #0
 4927 0080 3DE0     		b	.L643
 4928              	.L647:
 4929 0082 0268     		ldr	r2, [r0]
 4930 0084 D368     		ldr	r3, [r2, #12]
 4931 0086 23F48063 		bic	r3, r3, #1024
 4932 008a D360     		str	r3, [r2, #12]
 4933 008c 806A     		ldr	r0, [r0, #40]
 4934 008e FFF7FEFF 		bl	HAL_DMA_Abort_IT
 4935 0092 CBE7     		b	.L649
 4936              	.L646:
 4937 0094 0268     		ldr	r2, [r0]
 4938 0096 D368     		ldr	r3, [r2, #12]
 4939 0098 23F40063 		bic	r3, r3, #2048
 4940 009c D360     		str	r3, [r2, #12]
 4941 009e C06A     		ldr	r0, [r0, #44]
 4942 00a0 FFF7FEFF 		bl	HAL_DMA_Abort_IT
 4943 00a4 C2E7     		b	.L649
 4944              	.L644:
 4945 00a6 0268     		ldr	r2, [r0]
 4946 00a8 D368     		ldr	r3, [r2, #12]
 4947 00aa 23F48053 		bic	r3, r3, #4096
 4948 00ae D360     		str	r3, [r2, #12]
 4949 00b0 006B     		ldr	r0, [r0, #48]
 4950 00b2 FFF7FEFF 		bl	HAL_DMA_Abort_IT
 4951 00b6 B9E7     		b	.L649
 4952              	.L650:
 4953 00b8 196A     		ldr	r1, [r3, #32]
 4954 00ba 41F21112 		movw	r2, #4369
 4955 00be 1142     		tst	r1, r2
 4956 00c0 C9D1     		bne	.L651
 4957 00c2 196A     		ldr	r1, [r3, #32]
 4958 00c4 40F24442 		movw	r2, #1092
 4959 00c8 1142     		tst	r1, r2
 4960 00ca C4D1     		bne	.L651
 4961 00cc 5A6C     		ldr	r2, [r3, #68]
 4962 00ce 22F40042 		bic	r2, r2, #32768
 4963 00d2 5A64     		str	r2, [r3, #68]
 4964 00d4 BFE7     		b	.L651
 4965              	.L653:
 4966 00d6 042D     		cmp	r5, #4
 4967 00d8 06D0     		beq	.L658
 4968 00da 082D     		cmp	r5, #8
 4969 00dc 09D0     		beq	.L659
 4970 00de 0123     		movs	r3, #1
 4971 00e0 84F84130 		strb	r3, [r4, #65]
 4972 00e4 0020     		movs	r0, #0
 4973 00e6 0AE0     		b	.L643
 4974              	.L658:
 4975 00e8 0123     		movs	r3, #1
 4976 00ea 84F83F30 		strb	r3, [r4, #63]
 4977 00ee 0020     		movs	r0, #0
 4978 00f0 05E0     		b	.L643
 4979              	.L659:
 4980 00f2 0123     		movs	r3, #1
 4981 00f4 84F84030 		strb	r3, [r4, #64]
ARM GAS  /var/folders/t4/6192qx0n3zgdnvcwt906k_mw0000gn/T//cc5P7dKr.s 			page 85


 4982 00f8 0020     		movs	r0, #0
 4983 00fa 00E0     		b	.L643
 4984              	.L656:
 4985 00fc 0120     		movs	r0, #1
 4986              	.L643:
 4987 00fe 38BD     		pop	{r3, r4, r5, pc}
 4988              	.L661:
 4989              		.align	2
 4990              	.L660:
 4991 0100 002C0140 		.word	1073818624
 4993              		.section	.text.HAL_TIM_PWM_Start,"ax",%progbits
 4994              		.align	1
 4995              		.global	HAL_TIM_PWM_Start
 4996              		.syntax unified
 4997              		.thumb
 4998              		.thumb_func
 5000              	HAL_TIM_PWM_Start:
 5001              		@ args = 0, pretend = 0, frame = 0
 5002              		@ frame_needed = 0, uses_anonymous_args = 0
 5003 0000 10B5     		push	{r4, lr}
 5004 0002 0446     		mov	r4, r0
 5005 0004 0846     		mov	r0, r1
 5006 0006 0029     		cmp	r1, #0
 5007 0008 3ED1     		bne	.L663
 5008 000a 94F83E30 		ldrb	r3, [r4, #62]	@ zero_extendqisi2
 5009 000e DBB2     		uxtb	r3, r3
 5010 0010 013B     		subs	r3, r3, #1
 5011 0012 18BF     		it	ne
 5012 0014 0123     		movne	r3, #1
 5013              	.L664:
 5014 0016 002B     		cmp	r3, #0
 5015 0018 6AD1     		bne	.L676
 5016 001a 0028     		cmp	r0, #0
 5017 001c 4DD1     		bne	.L668
 5018 001e 0223     		movs	r3, #2
 5019 0020 84F83E30 		strb	r3, [r4, #62]
 5020              	.L669:
 5021 0024 0122     		movs	r2, #1
 5022 0026 0146     		mov	r1, r0
 5023 0028 2068     		ldr	r0, [r4]
 5024 002a FFF7FEFF 		bl	TIM_CCxChannelCmd
 5025 002e 2368     		ldr	r3, [r4]
 5026 0030 314A     		ldr	r2, .L683
 5027 0032 9342     		cmp	r3, r2
 5028 0034 0BD0     		beq	.L672
 5029 0036 02F5A052 		add	r2, r2, #5120
 5030 003a 9342     		cmp	r3, r2
 5031 003c 07D0     		beq	.L672
 5032 003e 02F58062 		add	r2, r2, #1024
 5033 0042 9342     		cmp	r3, r2
 5034 0044 03D0     		beq	.L672
 5035 0046 02F58062 		add	r2, r2, #1024
 5036 004a 9342     		cmp	r3, r2
 5037 004c 03D1     		bne	.L673
 5038              	.L672:
 5039 004e 5A6C     		ldr	r2, [r3, #68]
 5040 0050 42F40042 		orr	r2, r2, #32768
ARM GAS  /var/folders/t4/6192qx0n3zgdnvcwt906k_mw0000gn/T//cc5P7dKr.s 			page 86


 5041 0054 5A64     		str	r2, [r3, #68]
 5042              	.L673:
 5043 0056 2368     		ldr	r3, [r4]
 5044 0058 274A     		ldr	r2, .L683
 5045 005a 9342     		cmp	r3, r2
 5046 005c 3DD0     		beq	.L674
 5047 005e B3F1804F 		cmp	r3, #1073741824
 5048 0062 3AD0     		beq	.L674
 5049 0064 A2F59432 		sub	r2, r2, #75776
 5050 0068 9342     		cmp	r3, r2
 5051 006a 36D0     		beq	.L674
 5052 006c 02F58062 		add	r2, r2, #1024
 5053 0070 9342     		cmp	r3, r2
 5054 0072 32D0     		beq	.L674
 5055 0074 02F59C32 		add	r2, r2, #79872
 5056 0078 9342     		cmp	r3, r2
 5057 007a 2ED0     		beq	.L674
 5058 007c 1A68     		ldr	r2, [r3]
 5059 007e 42F00102 		orr	r2, r2, #1
 5060 0082 1A60     		str	r2, [r3]
 5061 0084 0020     		movs	r0, #0
 5062 0086 32E0     		b	.L667
 5063              	.L663:
 5064 0088 0429     		cmp	r1, #4
 5065 008a 08D0     		beq	.L679
 5066 008c 0829     		cmp	r1, #8
 5067 008e 0DD0     		beq	.L680
 5068 0090 94F84130 		ldrb	r3, [r4, #65]	@ zero_extendqisi2
 5069 0094 DBB2     		uxtb	r3, r3
 5070 0096 013B     		subs	r3, r3, #1
 5071 0098 18BF     		it	ne
 5072 009a 0123     		movne	r3, #1
 5073 009c BBE7     		b	.L664
 5074              	.L679:
 5075 009e 94F83F30 		ldrb	r3, [r4, #63]	@ zero_extendqisi2
 5076 00a2 DBB2     		uxtb	r3, r3
 5077 00a4 013B     		subs	r3, r3, #1
 5078 00a6 18BF     		it	ne
 5079 00a8 0123     		movne	r3, #1
 5080 00aa B4E7     		b	.L664
 5081              	.L680:
 5082 00ac 94F84030 		ldrb	r3, [r4, #64]	@ zero_extendqisi2
 5083 00b0 DBB2     		uxtb	r3, r3
 5084 00b2 013B     		subs	r3, r3, #1
 5085 00b4 18BF     		it	ne
 5086 00b6 0123     		movne	r3, #1
 5087 00b8 ADE7     		b	.L664
 5088              	.L668:
 5089 00ba 0428     		cmp	r0, #4
 5090 00bc 05D0     		beq	.L681
 5091 00be 0828     		cmp	r0, #8
 5092 00c0 07D0     		beq	.L682
 5093 00c2 0223     		movs	r3, #2
 5094 00c4 84F84130 		strb	r3, [r4, #65]
 5095 00c8 ACE7     		b	.L669
 5096              	.L681:
 5097 00ca 0223     		movs	r3, #2
ARM GAS  /var/folders/t4/6192qx0n3zgdnvcwt906k_mw0000gn/T//cc5P7dKr.s 			page 87


 5098 00cc 84F83F30 		strb	r3, [r4, #63]
 5099 00d0 A8E7     		b	.L669
 5100              	.L682:
 5101 00d2 0223     		movs	r3, #2
 5102 00d4 84F84030 		strb	r3, [r4, #64]
 5103 00d8 A4E7     		b	.L669
 5104              	.L674:
 5105 00da 9A68     		ldr	r2, [r3, #8]
 5106 00dc 02F00702 		and	r2, r2, #7
 5107 00e0 062A     		cmp	r2, #6
 5108 00e2 07D0     		beq	.L677
 5109 00e4 1A68     		ldr	r2, [r3]
 5110 00e6 42F00102 		orr	r2, r2, #1
 5111 00ea 1A60     		str	r2, [r3]
 5112 00ec 0020     		movs	r0, #0
 5113              	.L667:
 5114 00ee 10BD     		pop	{r4, pc}
 5115              	.L676:
 5116 00f0 0120     		movs	r0, #1
 5117 00f2 FCE7     		b	.L667
 5118              	.L677:
 5119 00f4 0020     		movs	r0, #0
 5120 00f6 FAE7     		b	.L667
 5121              	.L684:
 5122              		.align	2
 5123              	.L683:
 5124 00f8 002C0140 		.word	1073818624
 5126              		.section	.text.HAL_TIM_PWM_Stop,"ax",%progbits
 5127              		.align	1
 5128              		.global	HAL_TIM_PWM_Stop
 5129              		.syntax unified
 5130              		.thumb
 5131              		.thumb_func
 5133              	HAL_TIM_PWM_Stop:
 5134              		@ args = 0, pretend = 0, frame = 0
 5135              		@ frame_needed = 0, uses_anonymous_args = 0
 5136 0000 38B5     		push	{r3, r4, r5, lr}
 5137 0002 0446     		mov	r4, r0
 5138 0004 0D46     		mov	r5, r1
 5139 0006 0022     		movs	r2, #0
 5140 0008 0068     		ldr	r0, [r0]
 5141 000a FFF7FEFF 		bl	TIM_CCxChannelCmd
 5142 000e 2368     		ldr	r3, [r4]
 5143 0010 214A     		ldr	r2, .L696
 5144 0012 9342     		cmp	r3, r2
 5145 0014 20D0     		beq	.L686
 5146 0016 02F5A052 		add	r2, r2, #5120
 5147 001a 9342     		cmp	r3, r2
 5148 001c 1CD0     		beq	.L686
 5149 001e 02F58062 		add	r2, r2, #1024
 5150 0022 9342     		cmp	r3, r2
 5151 0024 18D0     		beq	.L686
 5152 0026 02F58062 		add	r2, r2, #1024
 5153 002a 9342     		cmp	r3, r2
 5154 002c 14D0     		beq	.L686
 5155              	.L687:
 5156 002e 2368     		ldr	r3, [r4]
ARM GAS  /var/folders/t4/6192qx0n3zgdnvcwt906k_mw0000gn/T//cc5P7dKr.s 			page 88


 5157 0030 196A     		ldr	r1, [r3, #32]
 5158 0032 41F21112 		movw	r2, #4369
 5159 0036 1142     		tst	r1, r2
 5160 0038 08D1     		bne	.L688
 5161 003a 196A     		ldr	r1, [r3, #32]
 5162 003c 40F24442 		movw	r2, #1092
 5163 0040 1142     		tst	r1, r2
 5164 0042 03D1     		bne	.L688
 5165 0044 1A68     		ldr	r2, [r3]
 5166 0046 22F00102 		bic	r2, r2, #1
 5167 004a 1A60     		str	r2, [r3]
 5168              	.L688:
 5169 004c 9DB9     		cbnz	r5, .L689
 5170 004e 0123     		movs	r3, #1
 5171 0050 84F83E30 		strb	r3, [r4, #62]
 5172              	.L690:
 5173 0054 0020     		movs	r0, #0
 5174 0056 38BD     		pop	{r3, r4, r5, pc}
 5175              	.L686:
 5176 0058 196A     		ldr	r1, [r3, #32]
 5177 005a 41F21112 		movw	r2, #4369
 5178 005e 1142     		tst	r1, r2
 5179 0060 E5D1     		bne	.L687
 5180 0062 196A     		ldr	r1, [r3, #32]
 5181 0064 40F24442 		movw	r2, #1092
 5182 0068 1142     		tst	r1, r2
 5183 006a E0D1     		bne	.L687
 5184 006c 5A6C     		ldr	r2, [r3, #68]
 5185 006e 22F40042 		bic	r2, r2, #32768
 5186 0072 5A64     		str	r2, [r3, #68]
 5187 0074 DBE7     		b	.L687
 5188              	.L689:
 5189 0076 042D     		cmp	r5, #4
 5190 0078 05D0     		beq	.L694
 5191 007a 082D     		cmp	r5, #8
 5192 007c 07D0     		beq	.L695
 5193 007e 0123     		movs	r3, #1
 5194 0080 84F84130 		strb	r3, [r4, #65]
 5195 0084 E6E7     		b	.L690
 5196              	.L694:
 5197 0086 0123     		movs	r3, #1
 5198 0088 84F83F30 		strb	r3, [r4, #63]
 5199 008c E2E7     		b	.L690
 5200              	.L695:
 5201 008e 0123     		movs	r3, #1
 5202 0090 84F84030 		strb	r3, [r4, #64]
 5203 0094 DEE7     		b	.L690
 5204              	.L697:
 5205 0096 00BF     		.align	2
 5206              	.L696:
 5207 0098 002C0140 		.word	1073818624
 5209              		.section	.text.HAL_TIM_PWM_Start_IT,"ax",%progbits
 5210              		.align	1
 5211              		.global	HAL_TIM_PWM_Start_IT
 5212              		.syntax unified
 5213              		.thumb
 5214              		.thumb_func
ARM GAS  /var/folders/t4/6192qx0n3zgdnvcwt906k_mw0000gn/T//cc5P7dKr.s 			page 89


 5216              	HAL_TIM_PWM_Start_IT:
 5217              		@ args = 0, pretend = 0, frame = 0
 5218              		@ frame_needed = 0, uses_anonymous_args = 0
 5219 0000 10B5     		push	{r4, lr}
 5220 0002 0446     		mov	r4, r0
 5221 0004 0846     		mov	r0, r1
 5222 0006 0029     		cmp	r1, #0
 5223 0008 44D1     		bne	.L699
 5224 000a 94F83E30 		ldrb	r3, [r4, #62]	@ zero_extendqisi2
 5225 000e DBB2     		uxtb	r3, r3
 5226 0010 013B     		subs	r3, r3, #1
 5227 0012 18BF     		it	ne
 5228 0014 0123     		movne	r3, #1
 5229              	.L700:
 5230 0016 002B     		cmp	r3, #0
 5231 0018 40F09F80 		bne	.L717
 5232 001c 0028     		cmp	r0, #0
 5233 001e 52D1     		bne	.L704
 5234 0020 0223     		movs	r3, #2
 5235 0022 84F83E30 		strb	r3, [r4, #62]
 5236              	.L705:
 5237 0026 2268     		ldr	r2, [r4]
 5238 0028 D368     		ldr	r3, [r2, #12]
 5239 002a 43F00203 		orr	r3, r3, #2
 5240 002e D360     		str	r3, [r2, #12]
 5241              	.L712:
 5242 0030 0122     		movs	r2, #1
 5243 0032 0146     		mov	r1, r0
 5244 0034 2068     		ldr	r0, [r4]
 5245 0036 FFF7FEFF 		bl	TIM_CCxChannelCmd
 5246 003a 2368     		ldr	r3, [r4]
 5247 003c 4A4A     		ldr	r2, .L728
 5248 003e 9342     		cmp	r3, r2
 5249 0040 0BD0     		beq	.L713
 5250 0042 02F5A052 		add	r2, r2, #5120
 5251 0046 9342     		cmp	r3, r2
 5252 0048 07D0     		beq	.L713
 5253 004a 02F58062 		add	r2, r2, #1024
 5254 004e 9342     		cmp	r3, r2
 5255 0050 03D0     		beq	.L713
 5256 0052 02F58062 		add	r2, r2, #1024
 5257 0056 9342     		cmp	r3, r2
 5258 0058 03D1     		bne	.L714
 5259              	.L713:
 5260 005a 5A6C     		ldr	r2, [r3, #68]
 5261 005c 42F40042 		orr	r2, r2, #32768
 5262 0060 5A64     		str	r2, [r3, #68]
 5263              	.L714:
 5264 0062 2368     		ldr	r3, [r4]
 5265 0064 404A     		ldr	r2, .L728
 5266 0066 9342     		cmp	r3, r2
 5267 0068 6CD0     		beq	.L715
 5268 006a B3F1804F 		cmp	r3, #1073741824
 5269 006e 69D0     		beq	.L715
 5270 0070 A2F59432 		sub	r2, r2, #75776
 5271 0074 9342     		cmp	r3, r2
 5272 0076 65D0     		beq	.L715
ARM GAS  /var/folders/t4/6192qx0n3zgdnvcwt906k_mw0000gn/T//cc5P7dKr.s 			page 90


 5273 0078 02F58062 		add	r2, r2, #1024
 5274 007c 9342     		cmp	r3, r2
 5275 007e 61D0     		beq	.L715
 5276 0080 02F59C32 		add	r2, r2, #79872
 5277 0084 9342     		cmp	r3, r2
 5278 0086 5DD0     		beq	.L715
 5279 0088 1A68     		ldr	r2, [r3]
 5280 008a 42F00102 		orr	r2, r2, #1
 5281 008e 1A60     		str	r2, [r3]
 5282 0090 0020     		movs	r0, #0
 5283 0092 61E0     		b	.L703
 5284              	.L699:
 5285 0094 0429     		cmp	r1, #4
 5286 0096 08D0     		beq	.L724
 5287 0098 0829     		cmp	r1, #8
 5288 009a 0DD0     		beq	.L725
 5289 009c 94F84130 		ldrb	r3, [r4, #65]	@ zero_extendqisi2
 5290 00a0 DBB2     		uxtb	r3, r3
 5291 00a2 013B     		subs	r3, r3, #1
 5292 00a4 18BF     		it	ne
 5293 00a6 0123     		movne	r3, #1
 5294 00a8 B5E7     		b	.L700
 5295              	.L724:
 5296 00aa 94F83F30 		ldrb	r3, [r4, #63]	@ zero_extendqisi2
 5297 00ae DBB2     		uxtb	r3, r3
 5298 00b0 013B     		subs	r3, r3, #1
 5299 00b2 18BF     		it	ne
 5300 00b4 0123     		movne	r3, #1
 5301 00b6 AEE7     		b	.L700
 5302              	.L725:
 5303 00b8 94F84030 		ldrb	r3, [r4, #64]	@ zero_extendqisi2
 5304 00bc DBB2     		uxtb	r3, r3
 5305 00be 013B     		subs	r3, r3, #1
 5306 00c0 18BF     		it	ne
 5307 00c2 0123     		movne	r3, #1
 5308 00c4 A7E7     		b	.L700
 5309              	.L704:
 5310 00c6 0428     		cmp	r0, #4
 5311 00c8 24D0     		beq	.L726
 5312 00ca 0828     		cmp	r0, #8
 5313 00cc 2BD0     		beq	.L727
 5314 00ce 0223     		movs	r3, #2
 5315 00d0 84F84130 		strb	r3, [r4, #65]
 5316 00d4 0C28     		cmp	r0, #12
 5317 00d6 42D8     		bhi	.L718
 5318 00d8 01A3     		adr	r3, .L711
 5319 00da 53F820F0 		ldr	pc, [r3, r0, lsl #2]
 5320 00de 00BF     		.p2align 2
 5321              	.L711:
 5322 00e0 27000000 		.word	.L705+1
 5323 00e4 5F010000 		.word	.L718+1
 5324 00e8 5F010000 		.word	.L718+1
 5325 00ec 5F010000 		.word	.L718+1
 5326 00f0 1B010000 		.word	.L707+1
 5327 00f4 5F010000 		.word	.L718+1
 5328 00f8 5F010000 		.word	.L718+1
 5329 00fc 5F010000 		.word	.L718+1
ARM GAS  /var/folders/t4/6192qx0n3zgdnvcwt906k_mw0000gn/T//cc5P7dKr.s 			page 91


 5330 0100 2D010000 		.word	.L709+1
 5331 0104 5F010000 		.word	.L718+1
 5332 0108 5F010000 		.word	.L718+1
 5333 010c 5F010000 		.word	.L718+1
 5334 0110 39010000 		.word	.L710+1
 5335              		.p2align 1
 5336              	.L726:
 5337 0114 0223     		movs	r3, #2
 5338 0116 84F83F30 		strb	r3, [r4, #63]
 5339              	.L707:
 5340 011a 2268     		ldr	r2, [r4]
 5341 011c D368     		ldr	r3, [r2, #12]
 5342 011e 43F00403 		orr	r3, r3, #4
 5343 0122 D360     		str	r3, [r2, #12]
 5344 0124 84E7     		b	.L712
 5345              	.L727:
 5346 0126 0223     		movs	r3, #2
 5347 0128 84F84030 		strb	r3, [r4, #64]
 5348              	.L709:
 5349 012c 2268     		ldr	r2, [r4]
 5350 012e D368     		ldr	r3, [r2, #12]
 5351 0130 43F00803 		orr	r3, r3, #8
 5352 0134 D360     		str	r3, [r2, #12]
 5353 0136 7BE7     		b	.L712
 5354              	.L710:
 5355 0138 2268     		ldr	r2, [r4]
 5356 013a D368     		ldr	r3, [r2, #12]
 5357 013c 43F01003 		orr	r3, r3, #16
 5358 0140 D360     		str	r3, [r2, #12]
 5359 0142 75E7     		b	.L712
 5360              	.L715:
 5361 0144 9A68     		ldr	r2, [r3, #8]
 5362 0146 02F00702 		and	r2, r2, #7
 5363 014a 062A     		cmp	r2, #6
 5364 014c 09D0     		beq	.L719
 5365 014e 1A68     		ldr	r2, [r3]
 5366 0150 42F00102 		orr	r2, r2, #1
 5367 0154 1A60     		str	r2, [r3]
 5368 0156 0020     		movs	r0, #0
 5369              	.L703:
 5370 0158 10BD     		pop	{r4, pc}
 5371              	.L717:
 5372 015a 0120     		movs	r0, #1
 5373 015c FCE7     		b	.L703
 5374              	.L718:
 5375 015e 0120     		movs	r0, #1
 5376 0160 FAE7     		b	.L703
 5377              	.L719:
 5378 0162 0020     		movs	r0, #0
 5379 0164 F8E7     		b	.L703
 5380              	.L729:
 5381 0166 00BF     		.align	2
 5382              	.L728:
 5383 0168 002C0140 		.word	1073818624
 5385              		.section	.text.HAL_TIM_PWM_Stop_IT,"ax",%progbits
 5386              		.align	1
 5387              		.global	HAL_TIM_PWM_Stop_IT
ARM GAS  /var/folders/t4/6192qx0n3zgdnvcwt906k_mw0000gn/T//cc5P7dKr.s 			page 92


 5388              		.syntax unified
 5389              		.thumb
 5390              		.thumb_func
 5392              	HAL_TIM_PWM_Stop_IT:
 5393              		@ args = 0, pretend = 0, frame = 0
 5394              		@ frame_needed = 0, uses_anonymous_args = 0
 5395 0000 38B5     		push	{r3, r4, r5, lr}
 5396 0002 0546     		mov	r5, r0
 5397 0004 0C46     		mov	r4, r1
 5398 0006 0C29     		cmp	r1, #12
 5399 0008 6BD8     		bhi	.L744
 5400 000a DFE801F0 		tbb	[pc, r1]
 5401              	.L733:
 5402 000e 07       		.byte	(.L736-.L733)/2
 5403 000f 6A       		.byte	(.L744-.L733)/2
 5404 0010 6A       		.byte	(.L744-.L733)/2
 5405 0011 6A       		.byte	(.L744-.L733)/2
 5406 0012 36       		.byte	(.L735-.L733)/2
 5407 0013 6A       		.byte	(.L744-.L733)/2
 5408 0014 6A       		.byte	(.L744-.L733)/2
 5409 0015 6A       		.byte	(.L744-.L733)/2
 5410 0016 3C       		.byte	(.L734-.L733)/2
 5411 0017 6A       		.byte	(.L744-.L733)/2
 5412 0018 6A       		.byte	(.L744-.L733)/2
 5413 0019 6A       		.byte	(.L744-.L733)/2
 5414 001a 42       		.byte	(.L732-.L733)/2
 5415 001b 00       		.p2align 1
 5416              	.L736:
 5417 001c 0268     		ldr	r2, [r0]
 5418 001e D368     		ldr	r3, [r2, #12]
 5419 0020 23F00203 		bic	r3, r3, #2
 5420 0024 D360     		str	r3, [r2, #12]
 5421              	.L737:
 5422 0026 0022     		movs	r2, #0
 5423 0028 2146     		mov	r1, r4
 5424 002a 2868     		ldr	r0, [r5]
 5425 002c FFF7FEFF 		bl	TIM_CCxChannelCmd
 5426 0030 2B68     		ldr	r3, [r5]
 5427 0032 2D4A     		ldr	r2, .L748
 5428 0034 9342     		cmp	r3, r2
 5429 0036 32D0     		beq	.L738
 5430 0038 02F5A052 		add	r2, r2, #5120
 5431 003c 9342     		cmp	r3, r2
 5432 003e 2ED0     		beq	.L738
 5433 0040 02F58062 		add	r2, r2, #1024
 5434 0044 9342     		cmp	r3, r2
 5435 0046 2AD0     		beq	.L738
 5436 0048 02F58062 		add	r2, r2, #1024
 5437 004c 9342     		cmp	r3, r2
 5438 004e 26D0     		beq	.L738
 5439              	.L739:
 5440 0050 2B68     		ldr	r3, [r5]
 5441 0052 196A     		ldr	r1, [r3, #32]
 5442 0054 41F21112 		movw	r2, #4369
 5443 0058 1142     		tst	r1, r2
 5444 005a 08D1     		bne	.L740
 5445 005c 196A     		ldr	r1, [r3, #32]
ARM GAS  /var/folders/t4/6192qx0n3zgdnvcwt906k_mw0000gn/T//cc5P7dKr.s 			page 93


 5446 005e 40F24442 		movw	r2, #1092
 5447 0062 1142     		tst	r1, r2
 5448 0064 03D1     		bne	.L740
 5449 0066 1A68     		ldr	r2, [r3]
 5450 0068 22F00102 		bic	r2, r2, #1
 5451 006c 1A60     		str	r2, [r3]
 5452              	.L740:
 5453 006e 2CBB     		cbnz	r4, .L741
 5454 0070 0123     		movs	r3, #1
 5455 0072 85F83E30 		strb	r3, [r5, #62]
 5456 0076 0020     		movs	r0, #0
 5457 0078 34E0     		b	.L731
 5458              	.L735:
 5459 007a 0268     		ldr	r2, [r0]
 5460 007c D368     		ldr	r3, [r2, #12]
 5461 007e 23F00403 		bic	r3, r3, #4
 5462 0082 D360     		str	r3, [r2, #12]
 5463 0084 CFE7     		b	.L737
 5464              	.L734:
 5465 0086 0268     		ldr	r2, [r0]
 5466 0088 D368     		ldr	r3, [r2, #12]
 5467 008a 23F00803 		bic	r3, r3, #8
 5468 008e D360     		str	r3, [r2, #12]
 5469 0090 C9E7     		b	.L737
 5470              	.L732:
 5471 0092 0268     		ldr	r2, [r0]
 5472 0094 D368     		ldr	r3, [r2, #12]
 5473 0096 23F01003 		bic	r3, r3, #16
 5474 009a D360     		str	r3, [r2, #12]
 5475 009c C3E7     		b	.L737
 5476              	.L738:
 5477 009e 196A     		ldr	r1, [r3, #32]
 5478 00a0 41F21112 		movw	r2, #4369
 5479 00a4 1142     		tst	r1, r2
 5480 00a6 D3D1     		bne	.L739
 5481 00a8 196A     		ldr	r1, [r3, #32]
 5482 00aa 40F24442 		movw	r2, #1092
 5483 00ae 1142     		tst	r1, r2
 5484 00b0 CED1     		bne	.L739
 5485 00b2 5A6C     		ldr	r2, [r3, #68]
 5486 00b4 22F40042 		bic	r2, r2, #32768
 5487 00b8 5A64     		str	r2, [r3, #68]
 5488 00ba C9E7     		b	.L739
 5489              	.L741:
 5490 00bc 042C     		cmp	r4, #4
 5491 00be 06D0     		beq	.L746
 5492 00c0 082C     		cmp	r4, #8
 5493 00c2 09D0     		beq	.L747
 5494 00c4 0123     		movs	r3, #1
 5495 00c6 85F84130 		strb	r3, [r5, #65]
 5496 00ca 0020     		movs	r0, #0
 5497 00cc 0AE0     		b	.L731
 5498              	.L746:
 5499 00ce 0123     		movs	r3, #1
 5500 00d0 85F83F30 		strb	r3, [r5, #63]
 5501 00d4 0020     		movs	r0, #0
 5502 00d6 05E0     		b	.L731
ARM GAS  /var/folders/t4/6192qx0n3zgdnvcwt906k_mw0000gn/T//cc5P7dKr.s 			page 94


 5503              	.L747:
 5504 00d8 0123     		movs	r3, #1
 5505 00da 85F84030 		strb	r3, [r5, #64]
 5506 00de 0020     		movs	r0, #0
 5507 00e0 00E0     		b	.L731
 5508              	.L744:
 5509 00e2 0120     		movs	r0, #1
 5510              	.L731:
 5511 00e4 38BD     		pop	{r3, r4, r5, pc}
 5512              	.L749:
 5513 00e6 00BF     		.align	2
 5514              	.L748:
 5515 00e8 002C0140 		.word	1073818624
 5517              		.section	.text.HAL_TIM_PWM_Start_DMA,"ax",%progbits
 5518              		.align	1
 5519              		.global	HAL_TIM_PWM_Start_DMA
 5520              		.syntax unified
 5521              		.thumb
 5522              		.thumb_func
 5524              	HAL_TIM_PWM_Start_DMA:
 5525              		@ args = 0, pretend = 0, frame = 0
 5526              		@ frame_needed = 0, uses_anonymous_args = 0
 5527 0000 70B5     		push	{r4, r5, r6, lr}
 5528 0002 0446     		mov	r4, r0
 5529 0004 1646     		mov	r6, r2
 5530 0006 0D46     		mov	r5, r1
 5531 0008 0029     		cmp	r1, #0
 5532 000a 6FD1     		bne	.L751
 5533 000c 90F83E00 		ldrb	r0, [r0, #62]	@ zero_extendqisi2
 5534 0010 C0B2     		uxtb	r0, r0
 5535 0012 0228     		cmp	r0, #2
 5536 0014 14BF     		ite	ne
 5537 0016 0020     		movne	r0, #0
 5538 0018 0120     		moveq	r0, #1
 5539              	.L752:
 5540 001a 0028     		cmp	r0, #0
 5541 001c 40F01981 		bne	.L773
 5542 0020 002D     		cmp	r5, #0
 5543 0022 7FD1     		bne	.L756
 5544 0024 94F83E20 		ldrb	r2, [r4, #62]	@ zero_extendqisi2
 5545 0028 D2B2     		uxtb	r2, r2
 5546 002a 012A     		cmp	r2, #1
 5547 002c 14BF     		ite	ne
 5548 002e 0022     		movne	r2, #0
 5549 0030 0122     		moveq	r2, #1
 5550              	.L757:
 5551 0032 002A     		cmp	r2, #0
 5552 0034 00F00F81 		beq	.L774
 5553 0038 002E     		cmp	r6, #0
 5554 003a 00F00E81 		beq	.L775
 5555 003e 002B     		cmp	r3, #0
 5556 0040 00F00D81 		beq	.L776
 5557 0044 002D     		cmp	r5, #0
 5558 0046 40F08980 		bne	.L760
 5559 004a 0222     		movs	r2, #2
 5560 004c 84F83E20 		strb	r2, [r4, #62]
 5561              	.L761:
ARM GAS  /var/folders/t4/6192qx0n3zgdnvcwt906k_mw0000gn/T//cc5P7dKr.s 			page 95


 5562 0050 626A     		ldr	r2, [r4, #36]
 5563 0052 8A49     		ldr	r1, .L793
 5564 0054 9162     		str	r1, [r2, #40]
 5565 0056 626A     		ldr	r2, [r4, #36]
 5566 0058 8949     		ldr	r1, .L793+4
 5567 005a D162     		str	r1, [r2, #44]
 5568 005c 626A     		ldr	r2, [r4, #36]
 5569 005e 8949     		ldr	r1, .L793+8
 5570 0060 1163     		str	r1, [r2, #48]
 5571 0062 2268     		ldr	r2, [r4]
 5572 0064 3432     		adds	r2, r2, #52
 5573 0066 3146     		mov	r1, r6
 5574 0068 606A     		ldr	r0, [r4, #36]
 5575 006a FFF7FEFF 		bl	HAL_DMA_Start_IT
 5576 006e 0028     		cmp	r0, #0
 5577 0070 40F0F980 		bne	.L778
 5578 0074 2268     		ldr	r2, [r4]
 5579 0076 D368     		ldr	r3, [r2, #12]
 5580 0078 43F40073 		orr	r3, r3, #512
 5581 007c D360     		str	r3, [r2, #12]
 5582              	.L768:
 5583 007e 0122     		movs	r2, #1
 5584 0080 2946     		mov	r1, r5
 5585 0082 2068     		ldr	r0, [r4]
 5586 0084 FFF7FEFF 		bl	TIM_CCxChannelCmd
 5587 0088 2368     		ldr	r3, [r4]
 5588 008a 7F4A     		ldr	r2, .L793+12
 5589 008c 9342     		cmp	r3, r2
 5590 008e 0BD0     		beq	.L769
 5591 0090 02F5A052 		add	r2, r2, #5120
 5592 0094 9342     		cmp	r3, r2
 5593 0096 07D0     		beq	.L769
 5594 0098 02F58062 		add	r2, r2, #1024
 5595 009c 9342     		cmp	r3, r2
 5596 009e 03D0     		beq	.L769
 5597 00a0 02F58062 		add	r2, r2, #1024
 5598 00a4 9342     		cmp	r3, r2
 5599 00a6 03D1     		bne	.L770
 5600              	.L769:
 5601 00a8 5A6C     		ldr	r2, [r3, #68]
 5602 00aa 42F40042 		orr	r2, r2, #32768
 5603 00ae 5A64     		str	r2, [r3, #68]
 5604              	.L770:
 5605 00b0 2368     		ldr	r3, [r4]
 5606 00b2 754A     		ldr	r2, .L793+12
 5607 00b4 9342     		cmp	r3, r2
 5608 00b6 00F0C180 		beq	.L771
 5609 00ba B3F1804F 		cmp	r3, #1073741824
 5610 00be 00F0BD80 		beq	.L771
 5611 00c2 A2F59432 		sub	r2, r2, #75776
 5612 00c6 9342     		cmp	r3, r2
 5613 00c8 00F0B880 		beq	.L771
 5614 00cc 02F58062 		add	r2, r2, #1024
 5615 00d0 9342     		cmp	r3, r2
 5616 00d2 00F0B380 		beq	.L771
 5617 00d6 02F59C32 		add	r2, r2, #79872
 5618 00da 9342     		cmp	r3, r2
ARM GAS  /var/folders/t4/6192qx0n3zgdnvcwt906k_mw0000gn/T//cc5P7dKr.s 			page 96


 5619 00dc 00F0AE80 		beq	.L771
 5620 00e0 1A68     		ldr	r2, [r3]
 5621 00e2 42F00102 		orr	r2, r2, #1
 5622 00e6 1A60     		str	r2, [r3]
 5623 00e8 0020     		movs	r0, #0
 5624 00ea B5E0     		b	.L755
 5625              	.L751:
 5626 00ec 0429     		cmp	r1, #4
 5627 00ee 09D0     		beq	.L787
 5628 00f0 0829     		cmp	r1, #8
 5629 00f2 0FD0     		beq	.L788
 5630 00f4 90F84100 		ldrb	r0, [r0, #65]	@ zero_extendqisi2
 5631 00f8 C0B2     		uxtb	r0, r0
 5632 00fa 0228     		cmp	r0, #2
 5633 00fc 14BF     		ite	ne
 5634 00fe 0020     		movne	r0, #0
 5635 0100 0120     		moveq	r0, #1
 5636 0102 8AE7     		b	.L752
 5637              	.L787:
 5638 0104 90F83F00 		ldrb	r0, [r0, #63]	@ zero_extendqisi2
 5639 0108 C0B2     		uxtb	r0, r0
 5640 010a 0228     		cmp	r0, #2
 5641 010c 14BF     		ite	ne
 5642 010e 0020     		movne	r0, #0
 5643 0110 0120     		moveq	r0, #1
 5644 0112 82E7     		b	.L752
 5645              	.L788:
 5646 0114 90F84000 		ldrb	r0, [r0, #64]	@ zero_extendqisi2
 5647 0118 C0B2     		uxtb	r0, r0
 5648 011a 0228     		cmp	r0, #2
 5649 011c 14BF     		ite	ne
 5650 011e 0020     		movne	r0, #0
 5651 0120 0120     		moveq	r0, #1
 5652 0122 7AE7     		b	.L752
 5653              	.L756:
 5654 0124 042D     		cmp	r5, #4
 5655 0126 09D0     		beq	.L789
 5656 0128 082D     		cmp	r5, #8
 5657 012a 0FD0     		beq	.L790
 5658 012c 94F84120 		ldrb	r2, [r4, #65]	@ zero_extendqisi2
 5659 0130 D2B2     		uxtb	r2, r2
 5660 0132 012A     		cmp	r2, #1
 5661 0134 14BF     		ite	ne
 5662 0136 0022     		movne	r2, #0
 5663 0138 0122     		moveq	r2, #1
 5664 013a 7AE7     		b	.L757
 5665              	.L789:
 5666 013c 94F83F20 		ldrb	r2, [r4, #63]	@ zero_extendqisi2
 5667 0140 D2B2     		uxtb	r2, r2
 5668 0142 012A     		cmp	r2, #1
 5669 0144 14BF     		ite	ne
 5670 0146 0022     		movne	r2, #0
 5671 0148 0122     		moveq	r2, #1
 5672 014a 72E7     		b	.L757
 5673              	.L790:
 5674 014c 94F84020 		ldrb	r2, [r4, #64]	@ zero_extendqisi2
 5675 0150 D2B2     		uxtb	r2, r2
ARM GAS  /var/folders/t4/6192qx0n3zgdnvcwt906k_mw0000gn/T//cc5P7dKr.s 			page 97


 5676 0152 012A     		cmp	r2, #1
 5677 0154 14BF     		ite	ne
 5678 0156 0022     		movne	r2, #0
 5679 0158 0122     		moveq	r2, #1
 5680 015a 6AE7     		b	.L757
 5681              	.L760:
 5682 015c 042D     		cmp	r5, #4
 5683 015e 23D0     		beq	.L791
 5684 0160 082D     		cmp	r5, #8
 5685 0162 3BD0     		beq	.L792
 5686 0164 0222     		movs	r2, #2
 5687 0166 84F84120 		strb	r2, [r4, #65]
 5688 016a 0C2D     		cmp	r5, #12
 5689 016c 79D8     		bhi	.L777
 5690 016e 01A2     		adr	r2, .L767
 5691 0170 52F825F0 		ldr	pc, [r2, r5, lsl #2]
 5692              		.p2align 2
 5693              	.L767:
 5694 0174 51000000 		.word	.L761+1
 5695 0178 63020000 		.word	.L777+1
 5696 017c 63020000 		.word	.L777+1
 5697 0180 63020000 		.word	.L777+1
 5698 0184 AF010000 		.word	.L763+1
 5699 0188 63020000 		.word	.L777+1
 5700 018c 63020000 		.word	.L777+1
 5701 0190 63020000 		.word	.L777+1
 5702 0194 E3010000 		.word	.L765+1
 5703 0198 63020000 		.word	.L777+1
 5704 019c 63020000 		.word	.L777+1
 5705 01a0 63020000 		.word	.L777+1
 5706 01a4 11020000 		.word	.L766+1
 5707              		.p2align 1
 5708              	.L791:
 5709 01a8 0222     		movs	r2, #2
 5710 01aa 84F83F20 		strb	r2, [r4, #63]
 5711              	.L763:
 5712 01ae A26A     		ldr	r2, [r4, #40]
 5713 01b0 3249     		ldr	r1, .L793
 5714 01b2 9162     		str	r1, [r2, #40]
 5715 01b4 A26A     		ldr	r2, [r4, #40]
 5716 01b6 3249     		ldr	r1, .L793+4
 5717 01b8 D162     		str	r1, [r2, #44]
 5718 01ba A26A     		ldr	r2, [r4, #40]
 5719 01bc 3149     		ldr	r1, .L793+8
 5720 01be 1163     		str	r1, [r2, #48]
 5721 01c0 2268     		ldr	r2, [r4]
 5722 01c2 3832     		adds	r2, r2, #56
 5723 01c4 3146     		mov	r1, r6
 5724 01c6 A06A     		ldr	r0, [r4, #40]
 5725 01c8 FFF7FEFF 		bl	HAL_DMA_Start_IT
 5726 01cc 0028     		cmp	r0, #0
 5727 01ce 4CD1     		bne	.L779
 5728 01d0 2268     		ldr	r2, [r4]
 5729 01d2 D368     		ldr	r3, [r2, #12]
 5730 01d4 43F48063 		orr	r3, r3, #1024
 5731 01d8 D360     		str	r3, [r2, #12]
 5732 01da 50E7     		b	.L768
ARM GAS  /var/folders/t4/6192qx0n3zgdnvcwt906k_mw0000gn/T//cc5P7dKr.s 			page 98


 5733              	.L792:
 5734 01dc 0222     		movs	r2, #2
 5735 01de 84F84020 		strb	r2, [r4, #64]
 5736              	.L765:
 5737 01e2 E26A     		ldr	r2, [r4, #44]
 5738 01e4 2549     		ldr	r1, .L793
 5739 01e6 9162     		str	r1, [r2, #40]
 5740 01e8 E26A     		ldr	r2, [r4, #44]
 5741 01ea 2549     		ldr	r1, .L793+4
 5742 01ec D162     		str	r1, [r2, #44]
 5743 01ee E26A     		ldr	r2, [r4, #44]
 5744 01f0 2449     		ldr	r1, .L793+8
 5745 01f2 1163     		str	r1, [r2, #48]
 5746 01f4 2268     		ldr	r2, [r4]
 5747 01f6 3C32     		adds	r2, r2, #60
 5748 01f8 3146     		mov	r1, r6
 5749 01fa E06A     		ldr	r0, [r4, #44]
 5750 01fc FFF7FEFF 		bl	HAL_DMA_Start_IT
 5751 0200 0028     		cmp	r0, #0
 5752 0202 34D1     		bne	.L780
 5753 0204 2268     		ldr	r2, [r4]
 5754 0206 D368     		ldr	r3, [r2, #12]
 5755 0208 43F40063 		orr	r3, r3, #2048
 5756 020c D360     		str	r3, [r2, #12]
 5757 020e 36E7     		b	.L768
 5758              	.L766:
 5759 0210 226B     		ldr	r2, [r4, #48]
 5760 0212 1A49     		ldr	r1, .L793
 5761 0214 9162     		str	r1, [r2, #40]
 5762 0216 226B     		ldr	r2, [r4, #48]
 5763 0218 1949     		ldr	r1, .L793+4
 5764 021a D162     		str	r1, [r2, #44]
 5765 021c 226B     		ldr	r2, [r4, #48]
 5766 021e 1949     		ldr	r1, .L793+8
 5767 0220 1163     		str	r1, [r2, #48]
 5768 0222 2268     		ldr	r2, [r4]
 5769 0224 4032     		adds	r2, r2, #64
 5770 0226 3146     		mov	r1, r6
 5771 0228 206B     		ldr	r0, [r4, #48]
 5772 022a FFF7FEFF 		bl	HAL_DMA_Start_IT
 5773 022e 00BB     		cbnz	r0, .L781
 5774 0230 2268     		ldr	r2, [r4]
 5775 0232 D368     		ldr	r3, [r2, #12]
 5776 0234 43F48053 		orr	r3, r3, #4096
 5777 0238 D360     		str	r3, [r2, #12]
 5778 023a 20E7     		b	.L768
 5779              	.L771:
 5780 023c 9A68     		ldr	r2, [r3, #8]
 5781 023e 02F00702 		and	r2, r2, #7
 5782 0242 062A     		cmp	r2, #6
 5783 0244 17D0     		beq	.L782
 5784 0246 1A68     		ldr	r2, [r3]
 5785 0248 42F00102 		orr	r2, r2, #1
 5786 024c 1A60     		str	r2, [r3]
 5787 024e 0020     		movs	r0, #0
 5788 0250 02E0     		b	.L755
 5789              	.L773:
ARM GAS  /var/folders/t4/6192qx0n3zgdnvcwt906k_mw0000gn/T//cc5P7dKr.s 			page 99


 5790 0252 0220     		movs	r0, #2
 5791 0254 00E0     		b	.L755
 5792              	.L774:
 5793 0256 0120     		movs	r0, #1
 5794              	.L755:
 5795 0258 70BD     		pop	{r4, r5, r6, pc}
 5796              	.L775:
 5797 025a 0120     		movs	r0, #1
 5798 025c FCE7     		b	.L755
 5799              	.L776:
 5800 025e 0120     		movs	r0, #1
 5801 0260 FAE7     		b	.L755
 5802              	.L777:
 5803 0262 0120     		movs	r0, #1
 5804 0264 F8E7     		b	.L755
 5805              	.L778:
 5806 0266 0120     		movs	r0, #1
 5807 0268 F6E7     		b	.L755
 5808              	.L779:
 5809 026a 0120     		movs	r0, #1
 5810 026c F4E7     		b	.L755
 5811              	.L780:
 5812 026e 0120     		movs	r0, #1
 5813 0270 F2E7     		b	.L755
 5814              	.L781:
 5815 0272 0120     		movs	r0, #1
 5816 0274 F0E7     		b	.L755
 5817              	.L782:
 5818 0276 0020     		movs	r0, #0
 5819 0278 EEE7     		b	.L755
 5820              	.L794:
 5821 027a 00BF     		.align	2
 5822              	.L793:
 5823 027c 00000000 		.word	TIM_DMADelayPulseCplt
 5824 0280 00000000 		.word	TIM_DMADelayPulseHalfCplt
 5825 0284 00000000 		.word	TIM_DMAError
 5826 0288 002C0140 		.word	1073818624
 5828              		.section	.text.HAL_TIM_PWM_Stop_DMA,"ax",%progbits
 5829              		.align	1
 5830              		.global	HAL_TIM_PWM_Stop_DMA
 5831              		.syntax unified
 5832              		.thumb
 5833              		.thumb_func
 5835              	HAL_TIM_PWM_Stop_DMA:
 5836              		@ args = 0, pretend = 0, frame = 0
 5837              		@ frame_needed = 0, uses_anonymous_args = 0
 5838 0000 38B5     		push	{r3, r4, r5, lr}
 5839 0002 0446     		mov	r4, r0
 5840 0004 0D46     		mov	r5, r1
 5841 0006 0C29     		cmp	r1, #12
 5842 0008 78D8     		bhi	.L809
 5843 000a DFE801F0 		tbb	[pc, r1]
 5844              	.L798:
 5845 000e 07       		.byte	(.L801-.L798)/2
 5846 000f 77       		.byte	(.L809-.L798)/2
 5847 0010 77       		.byte	(.L809-.L798)/2
 5848 0011 77       		.byte	(.L809-.L798)/2
ARM GAS  /var/folders/t4/6192qx0n3zgdnvcwt906k_mw0000gn/T//cc5P7dKr.s 			page 100


 5849 0012 3A       		.byte	(.L800-.L798)/2
 5850 0013 77       		.byte	(.L809-.L798)/2
 5851 0014 77       		.byte	(.L809-.L798)/2
 5852 0015 77       		.byte	(.L809-.L798)/2
 5853 0016 43       		.byte	(.L799-.L798)/2
 5854 0017 77       		.byte	(.L809-.L798)/2
 5855 0018 77       		.byte	(.L809-.L798)/2
 5856 0019 77       		.byte	(.L809-.L798)/2
 5857 001a 4C       		.byte	(.L797-.L798)/2
 5858 001b 00       		.p2align 1
 5859              	.L801:
 5860 001c 0268     		ldr	r2, [r0]
 5861 001e D368     		ldr	r3, [r2, #12]
 5862 0020 23F40073 		bic	r3, r3, #512
 5863 0024 D360     		str	r3, [r2, #12]
 5864 0026 406A     		ldr	r0, [r0, #36]
 5865 0028 FFF7FEFF 		bl	HAL_DMA_Abort_IT
 5866              	.L802:
 5867 002c 0022     		movs	r2, #0
 5868 002e 2946     		mov	r1, r5
 5869 0030 2068     		ldr	r0, [r4]
 5870 0032 FFF7FEFF 		bl	TIM_CCxChannelCmd
 5871 0036 2368     		ldr	r3, [r4]
 5872 0038 314A     		ldr	r2, .L813
 5873 003a 9342     		cmp	r3, r2
 5874 003c 3CD0     		beq	.L803
 5875 003e 02F5A052 		add	r2, r2, #5120
 5876 0042 9342     		cmp	r3, r2
 5877 0044 38D0     		beq	.L803
 5878 0046 02F58062 		add	r2, r2, #1024
 5879 004a 9342     		cmp	r3, r2
 5880 004c 34D0     		beq	.L803
 5881 004e 02F58062 		add	r2, r2, #1024
 5882 0052 9342     		cmp	r3, r2
 5883 0054 30D0     		beq	.L803
 5884              	.L804:
 5885 0056 2368     		ldr	r3, [r4]
 5886 0058 196A     		ldr	r1, [r3, #32]
 5887 005a 41F21112 		movw	r2, #4369
 5888 005e 1142     		tst	r1, r2
 5889 0060 08D1     		bne	.L805
 5890 0062 196A     		ldr	r1, [r3, #32]
 5891 0064 40F24442 		movw	r2, #1092
 5892 0068 1142     		tst	r1, r2
 5893 006a 03D1     		bne	.L805
 5894 006c 1A68     		ldr	r2, [r3]
 5895 006e 22F00102 		bic	r2, r2, #1
 5896 0072 1A60     		str	r2, [r3]
 5897              	.L805:
 5898 0074 002D     		cmp	r5, #0
 5899 0076 2ED1     		bne	.L806
 5900 0078 0123     		movs	r3, #1
 5901 007a 84F83E30 		strb	r3, [r4, #62]
 5902 007e 0020     		movs	r0, #0
 5903 0080 3DE0     		b	.L796
 5904              	.L800:
 5905 0082 0268     		ldr	r2, [r0]
ARM GAS  /var/folders/t4/6192qx0n3zgdnvcwt906k_mw0000gn/T//cc5P7dKr.s 			page 101


 5906 0084 D368     		ldr	r3, [r2, #12]
 5907 0086 23F48063 		bic	r3, r3, #1024
 5908 008a D360     		str	r3, [r2, #12]
 5909 008c 806A     		ldr	r0, [r0, #40]
 5910 008e FFF7FEFF 		bl	HAL_DMA_Abort_IT
 5911 0092 CBE7     		b	.L802
 5912              	.L799:
 5913 0094 0268     		ldr	r2, [r0]
 5914 0096 D368     		ldr	r3, [r2, #12]
 5915 0098 23F40063 		bic	r3, r3, #2048
 5916 009c D360     		str	r3, [r2, #12]
 5917 009e C06A     		ldr	r0, [r0, #44]
 5918 00a0 FFF7FEFF 		bl	HAL_DMA_Abort_IT
 5919 00a4 C2E7     		b	.L802
 5920              	.L797:
 5921 00a6 0268     		ldr	r2, [r0]
 5922 00a8 D368     		ldr	r3, [r2, #12]
 5923 00aa 23F48053 		bic	r3, r3, #4096
 5924 00ae D360     		str	r3, [r2, #12]
 5925 00b0 006B     		ldr	r0, [r0, #48]
 5926 00b2 FFF7FEFF 		bl	HAL_DMA_Abort_IT
 5927 00b6 B9E7     		b	.L802
 5928              	.L803:
 5929 00b8 196A     		ldr	r1, [r3, #32]
 5930 00ba 41F21112 		movw	r2, #4369
 5931 00be 1142     		tst	r1, r2
 5932 00c0 C9D1     		bne	.L804
 5933 00c2 196A     		ldr	r1, [r3, #32]
 5934 00c4 40F24442 		movw	r2, #1092
 5935 00c8 1142     		tst	r1, r2
 5936 00ca C4D1     		bne	.L804
 5937 00cc 5A6C     		ldr	r2, [r3, #68]
 5938 00ce 22F40042 		bic	r2, r2, #32768
 5939 00d2 5A64     		str	r2, [r3, #68]
 5940 00d4 BFE7     		b	.L804
 5941              	.L806:
 5942 00d6 042D     		cmp	r5, #4
 5943 00d8 06D0     		beq	.L811
 5944 00da 082D     		cmp	r5, #8
 5945 00dc 09D0     		beq	.L812
 5946 00de 0123     		movs	r3, #1
 5947 00e0 84F84130 		strb	r3, [r4, #65]
 5948 00e4 0020     		movs	r0, #0
 5949 00e6 0AE0     		b	.L796
 5950              	.L811:
 5951 00e8 0123     		movs	r3, #1
 5952 00ea 84F83F30 		strb	r3, [r4, #63]
 5953 00ee 0020     		movs	r0, #0
 5954 00f0 05E0     		b	.L796
 5955              	.L812:
 5956 00f2 0123     		movs	r3, #1
 5957 00f4 84F84030 		strb	r3, [r4, #64]
 5958 00f8 0020     		movs	r0, #0
 5959 00fa 00E0     		b	.L796
 5960              	.L809:
 5961 00fc 0120     		movs	r0, #1
 5962              	.L796:
ARM GAS  /var/folders/t4/6192qx0n3zgdnvcwt906k_mw0000gn/T//cc5P7dKr.s 			page 102


 5963 00fe 38BD     		pop	{r3, r4, r5, pc}
 5964              	.L814:
 5965              		.align	2
 5966              	.L813:
 5967 0100 002C0140 		.word	1073818624
 5969              		.section	.text.HAL_TIM_IC_Start,"ax",%progbits
 5970              		.align	1
 5971              		.global	HAL_TIM_IC_Start
 5972              		.syntax unified
 5973              		.thumb
 5974              		.thumb_func
 5976              	HAL_TIM_IC_Start:
 5977              		@ args = 0, pretend = 0, frame = 0
 5978              		@ frame_needed = 0, uses_anonymous_args = 0
 5979 0000 10B5     		push	{r4, lr}
 5980 0002 0446     		mov	r4, r0
 5981 0004 0B46     		mov	r3, r1
 5982 0006 81BB     		cbnz	r1, .L816
 5983 0008 90F83E00 		ldrb	r0, [r0, #62]	@ zero_extendqisi2
 5984 000c C0B2     		uxtb	r0, r0
 5985              	.L817:
 5986 000e 002B     		cmp	r3, #0
 5987 0010 3BD1     		bne	.L820
 5988 0012 94F84220 		ldrb	r2, [r4, #66]	@ zero_extendqisi2
 5989 0016 D2B2     		uxtb	r2, r2
 5990              	.L821:
 5991 0018 0128     		cmp	r0, #1
 5992 001a 70D1     		bne	.L834
 5993 001c 012A     		cmp	r2, #1
 5994 001e 6FD1     		bne	.L824
 5995 0020 002B     		cmp	r3, #0
 5996 0022 42D1     		bne	.L825
 5997 0024 0222     		movs	r2, #2
 5998 0026 84F83E20 		strb	r2, [r4, #62]
 5999 002a 84F84220 		strb	r2, [r4, #66]
 6000              	.L826:
 6001 002e 0122     		movs	r2, #1
 6002 0030 1946     		mov	r1, r3
 6003 0032 2068     		ldr	r0, [r4]
 6004 0034 FFF7FEFF 		bl	TIM_CCxChannelCmd
 6005 0038 2368     		ldr	r3, [r4]
 6006 003a 334A     		ldr	r2, .L845
 6007 003c 9342     		cmp	r3, r2
 6008 003e 53D0     		beq	.L832
 6009 0040 B3F1804F 		cmp	r3, #1073741824
 6010 0044 50D0     		beq	.L832
 6011 0046 A2F59432 		sub	r2, r2, #75776
 6012 004a 9342     		cmp	r3, r2
 6013 004c 4CD0     		beq	.L832
 6014 004e 02F58062 		add	r2, r2, #1024
 6015 0052 9342     		cmp	r3, r2
 6016 0054 48D0     		beq	.L832
 6017 0056 02F59C32 		add	r2, r2, #79872
 6018 005a 9342     		cmp	r3, r2
 6019 005c 44D0     		beq	.L832
 6020 005e 1A68     		ldr	r2, [r3]
 6021 0060 42F00102 		orr	r2, r2, #1
ARM GAS  /var/folders/t4/6192qx0n3zgdnvcwt906k_mw0000gn/T//cc5P7dKr.s 			page 103


 6022 0064 1A60     		str	r2, [r3]
 6023 0066 0020     		movs	r0, #0
 6024 0068 4AE0     		b	.L824
 6025              	.L816:
 6026 006a 0429     		cmp	r1, #4
 6027 006c 05D0     		beq	.L837
 6028 006e 0829     		cmp	r1, #8
 6029 0070 07D0     		beq	.L838
 6030 0072 90F84100 		ldrb	r0, [r0, #65]	@ zero_extendqisi2
 6031 0076 C0B2     		uxtb	r0, r0
 6032 0078 C9E7     		b	.L817
 6033              	.L837:
 6034 007a 90F83F00 		ldrb	r0, [r0, #63]	@ zero_extendqisi2
 6035 007e C0B2     		uxtb	r0, r0
 6036 0080 C5E7     		b	.L817
 6037              	.L838:
 6038 0082 90F84000 		ldrb	r0, [r0, #64]	@ zero_extendqisi2
 6039 0086 C0B2     		uxtb	r0, r0
 6040 0088 C1E7     		b	.L817
 6041              	.L820:
 6042 008a 042B     		cmp	r3, #4
 6043 008c 05D0     		beq	.L839
 6044 008e 082B     		cmp	r3, #8
 6045 0090 07D0     		beq	.L840
 6046 0092 94F84520 		ldrb	r2, [r4, #69]	@ zero_extendqisi2
 6047 0096 D2B2     		uxtb	r2, r2
 6048 0098 BEE7     		b	.L821
 6049              	.L839:
 6050 009a 94F84320 		ldrb	r2, [r4, #67]	@ zero_extendqisi2
 6051 009e D2B2     		uxtb	r2, r2
 6052 00a0 BAE7     		b	.L821
 6053              	.L840:
 6054 00a2 94F84420 		ldrb	r2, [r4, #68]	@ zero_extendqisi2
 6055 00a6 D2B2     		uxtb	r2, r2
 6056 00a8 B6E7     		b	.L821
 6057              	.L825:
 6058 00aa 042B     		cmp	r3, #4
 6059 00ac 0CD0     		beq	.L841
 6060 00ae 082B     		cmp	r3, #8
 6061 00b0 0ED0     		beq	.L842
 6062 00b2 0222     		movs	r2, #2
 6063 00b4 84F84120 		strb	r2, [r4, #65]
 6064              	.L828:
 6065 00b8 042B     		cmp	r3, #4
 6066 00ba 0DD0     		beq	.L843
 6067 00bc 082B     		cmp	r3, #8
 6068 00be 0FD0     		beq	.L844
 6069 00c0 0222     		movs	r2, #2
 6070 00c2 84F84520 		strb	r2, [r4, #69]
 6071 00c6 B2E7     		b	.L826
 6072              	.L841:
 6073 00c8 0222     		movs	r2, #2
 6074 00ca 84F83F20 		strb	r2, [r4, #63]
 6075 00ce F3E7     		b	.L828
 6076              	.L842:
 6077 00d0 0222     		movs	r2, #2
 6078 00d2 84F84020 		strb	r2, [r4, #64]
ARM GAS  /var/folders/t4/6192qx0n3zgdnvcwt906k_mw0000gn/T//cc5P7dKr.s 			page 104


 6079 00d6 EFE7     		b	.L828
 6080              	.L843:
 6081 00d8 0222     		movs	r2, #2
 6082 00da 84F84320 		strb	r2, [r4, #67]
 6083 00de A6E7     		b	.L826
 6084              	.L844:
 6085 00e0 0222     		movs	r2, #2
 6086 00e2 84F84420 		strb	r2, [r4, #68]
 6087 00e6 A2E7     		b	.L826
 6088              	.L832:
 6089 00e8 9A68     		ldr	r2, [r3, #8]
 6090 00ea 02F00702 		and	r2, r2, #7
 6091 00ee 062A     		cmp	r2, #6
 6092 00f0 07D0     		beq	.L835
 6093 00f2 1A68     		ldr	r2, [r3]
 6094 00f4 42F00102 		orr	r2, r2, #1
 6095 00f8 1A60     		str	r2, [r3]
 6096 00fa 0020     		movs	r0, #0
 6097 00fc 00E0     		b	.L824
 6098              	.L834:
 6099 00fe 0120     		movs	r0, #1
 6100              	.L824:
 6101 0100 10BD     		pop	{r4, pc}
 6102              	.L835:
 6103 0102 0020     		movs	r0, #0
 6104 0104 FCE7     		b	.L824
 6105              	.L846:
 6106 0106 00BF     		.align	2
 6107              	.L845:
 6108 0108 002C0140 		.word	1073818624
 6110              		.section	.text.HAL_TIM_IC_Stop,"ax",%progbits
 6111              		.align	1
 6112              		.global	HAL_TIM_IC_Stop
 6113              		.syntax unified
 6114              		.thumb
 6115              		.thumb_func
 6117              	HAL_TIM_IC_Stop:
 6118              		@ args = 0, pretend = 0, frame = 0
 6119              		@ frame_needed = 0, uses_anonymous_args = 0
 6120 0000 38B5     		push	{r3, r4, r5, lr}
 6121 0002 0446     		mov	r4, r0
 6122 0004 0D46     		mov	r5, r1
 6123 0006 0022     		movs	r2, #0
 6124 0008 0068     		ldr	r0, [r0]
 6125 000a FFF7FEFF 		bl	TIM_CCxChannelCmd
 6126 000e 2368     		ldr	r3, [r4]
 6127 0010 196A     		ldr	r1, [r3, #32]
 6128 0012 41F21112 		movw	r2, #4369
 6129 0016 1142     		tst	r1, r2
 6130 0018 08D1     		bne	.L848
 6131 001a 196A     		ldr	r1, [r3, #32]
 6132 001c 40F24442 		movw	r2, #1092
 6133 0020 1142     		tst	r1, r2
 6134 0022 03D1     		bne	.L848
 6135 0024 1A68     		ldr	r2, [r3]
 6136 0026 22F00102 		bic	r2, r2, #1
 6137 002a 1A60     		str	r2, [r3]
ARM GAS  /var/folders/t4/6192qx0n3zgdnvcwt906k_mw0000gn/T//cc5P7dKr.s 			page 105


 6138              	.L848:
 6139 002c 35B9     		cbnz	r5, .L849
 6140 002e 0123     		movs	r3, #1
 6141 0030 84F83E30 		strb	r3, [r4, #62]
 6142 0034 84F84230 		strb	r3, [r4, #66]
 6143              	.L850:
 6144 0038 0020     		movs	r0, #0
 6145 003a 38BD     		pop	{r3, r4, r5, pc}
 6146              	.L849:
 6147 003c 042D     		cmp	r5, #4
 6148 003e 0CD0     		beq	.L857
 6149 0040 082D     		cmp	r5, #8
 6150 0042 0ED0     		beq	.L858
 6151 0044 0123     		movs	r3, #1
 6152 0046 84F84130 		strb	r3, [r4, #65]
 6153              	.L852:
 6154 004a 042D     		cmp	r5, #4
 6155 004c 0DD0     		beq	.L859
 6156 004e 082D     		cmp	r5, #8
 6157 0050 0FD0     		beq	.L860
 6158 0052 0123     		movs	r3, #1
 6159 0054 84F84530 		strb	r3, [r4, #69]
 6160 0058 EEE7     		b	.L850
 6161              	.L857:
 6162 005a 0123     		movs	r3, #1
 6163 005c 84F83F30 		strb	r3, [r4, #63]
 6164 0060 F3E7     		b	.L852
 6165              	.L858:
 6166 0062 0123     		movs	r3, #1
 6167 0064 84F84030 		strb	r3, [r4, #64]
 6168 0068 EFE7     		b	.L852
 6169              	.L859:
 6170 006a 0123     		movs	r3, #1
 6171 006c 84F84330 		strb	r3, [r4, #67]
 6172 0070 E2E7     		b	.L850
 6173              	.L860:
 6174 0072 0123     		movs	r3, #1
 6175 0074 84F84430 		strb	r3, [r4, #68]
 6176 0078 DEE7     		b	.L850
 6178              		.section	.text.HAL_TIM_IC_Start_IT,"ax",%progbits
 6179              		.align	1
 6180              		.global	HAL_TIM_IC_Start_IT
 6181              		.syntax unified
 6182              		.thumb
 6183              		.thumb_func
 6185              	HAL_TIM_IC_Start_IT:
 6186              		@ args = 0, pretend = 0, frame = 0
 6187              		@ frame_needed = 0, uses_anonymous_args = 0
 6188 0000 10B5     		push	{r4, lr}
 6189 0002 0446     		mov	r4, r0
 6190 0004 0B46     		mov	r3, r1
 6191 0006 F1B9     		cbnz	r1, .L862
 6192 0008 90F83E00 		ldrb	r0, [r0, #62]	@ zero_extendqisi2
 6193 000c C0B2     		uxtb	r0, r0
 6194              	.L863:
 6195 000e 53BB     		cbnz	r3, .L866
 6196 0010 94F84220 		ldrb	r2, [r4, #66]	@ zero_extendqisi2
ARM GAS  /var/folders/t4/6192qx0n3zgdnvcwt906k_mw0000gn/T//cc5P7dKr.s 			page 106


 6197 0014 D2B2     		uxtb	r2, r2
 6198              	.L867:
 6199 0016 0128     		cmp	r0, #1
 6200 0018 40F09280 		bne	.L886
 6201 001c 012A     		cmp	r2, #1
 6202 001e 40F09080 		bne	.L870
 6203 0022 83BB     		cbnz	r3, .L871
 6204 0024 0221     		movs	r1, #2
 6205 0026 84F83E10 		strb	r1, [r4, #62]
 6206 002a 84F84210 		strb	r1, [r4, #66]
 6207              	.L872:
 6208 002e 0C2B     		cmp	r3, #12
 6209 0030 00F28880 		bhi	.L887
 6210 0034 DFE803F0 		tbb	[pc, r3]
 6211              	.L881:
 6212 0038 6D       		.byte	(.L882-.L881)/2
 6213 0039 86       		.byte	(.L887-.L881)/2
 6214 003a 86       		.byte	(.L887-.L881)/2
 6215 003b 86       		.byte	(.L887-.L881)/2
 6216 003c 41       		.byte	(.L877-.L881)/2
 6217 003d 86       		.byte	(.L887-.L881)/2
 6218 003e 86       		.byte	(.L887-.L881)/2
 6219 003f 86       		.byte	(.L887-.L881)/2
 6220 0040 67       		.byte	(.L879-.L881)/2
 6221 0041 86       		.byte	(.L887-.L881)/2
 6222 0042 86       		.byte	(.L887-.L881)/2
 6223 0043 86       		.byte	(.L887-.L881)/2
 6224 0044 73       		.byte	(.L880-.L881)/2
 6225 0045 00       		.p2align 1
 6226              	.L862:
 6227 0046 0429     		cmp	r1, #4
 6228 0048 05D0     		beq	.L892
 6229 004a 0829     		cmp	r1, #8
 6230 004c 07D0     		beq	.L893
 6231 004e 90F84100 		ldrb	r0, [r0, #65]	@ zero_extendqisi2
 6232 0052 C0B2     		uxtb	r0, r0
 6233 0054 DBE7     		b	.L863
 6234              	.L892:
 6235 0056 90F83F00 		ldrb	r0, [r0, #63]	@ zero_extendqisi2
 6236 005a C0B2     		uxtb	r0, r0
 6237 005c D7E7     		b	.L863
 6238              	.L893:
 6239 005e 90F84000 		ldrb	r0, [r0, #64]	@ zero_extendqisi2
 6240 0062 C0B2     		uxtb	r0, r0
 6241 0064 D3E7     		b	.L863
 6242              	.L866:
 6243 0066 042B     		cmp	r3, #4
 6244 0068 05D0     		beq	.L894
 6245 006a 082B     		cmp	r3, #8
 6246 006c 07D0     		beq	.L895
 6247 006e 94F84520 		ldrb	r2, [r4, #69]	@ zero_extendqisi2
 6248 0072 D2B2     		uxtb	r2, r2
 6249 0074 CFE7     		b	.L867
 6250              	.L894:
 6251 0076 94F84320 		ldrb	r2, [r4, #67]	@ zero_extendqisi2
 6252 007a D2B2     		uxtb	r2, r2
 6253 007c CBE7     		b	.L867
ARM GAS  /var/folders/t4/6192qx0n3zgdnvcwt906k_mw0000gn/T//cc5P7dKr.s 			page 107


 6254              	.L895:
 6255 007e 94F84420 		ldrb	r2, [r4, #68]	@ zero_extendqisi2
 6256 0082 D2B2     		uxtb	r2, r2
 6257 0084 C7E7     		b	.L867
 6258              	.L871:
 6259 0086 042B     		cmp	r3, #4
 6260 0088 0CD0     		beq	.L896
 6261 008a 082B     		cmp	r3, #8
 6262 008c 0ED0     		beq	.L897
 6263 008e 0221     		movs	r1, #2
 6264 0090 84F84110 		strb	r1, [r4, #65]
 6265              	.L874:
 6266 0094 042B     		cmp	r3, #4
 6267 0096 0DD0     		beq	.L898
 6268 0098 082B     		cmp	r3, #8
 6269 009a 31D0     		beq	.L899
 6270 009c 0221     		movs	r1, #2
 6271 009e 84F84510 		strb	r1, [r4, #69]
 6272 00a2 C4E7     		b	.L872
 6273              	.L896:
 6274 00a4 0221     		movs	r1, #2
 6275 00a6 84F83F10 		strb	r1, [r4, #63]
 6276 00aa F3E7     		b	.L874
 6277              	.L897:
 6278 00ac 0221     		movs	r1, #2
 6279 00ae 84F84010 		strb	r1, [r4, #64]
 6280 00b2 EFE7     		b	.L874
 6281              	.L898:
 6282 00b4 0222     		movs	r2, #2
 6283 00b6 84F84320 		strb	r2, [r4, #67]
 6284              	.L877:
 6285 00ba 2168     		ldr	r1, [r4]
 6286 00bc CA68     		ldr	r2, [r1, #12]
 6287 00be 42F00402 		orr	r2, r2, #4
 6288 00c2 CA60     		str	r2, [r1, #12]
 6289              	.L883:
 6290 00c4 0122     		movs	r2, #1
 6291 00c6 1946     		mov	r1, r3
 6292 00c8 2068     		ldr	r0, [r4]
 6293 00ca FFF7FEFF 		bl	TIM_CCxChannelCmd
 6294 00ce 2368     		ldr	r3, [r4]
 6295 00d0 1E4A     		ldr	r2, .L900
 6296 00d2 9342     		cmp	r3, r2
 6297 00d4 29D0     		beq	.L884
 6298 00d6 B3F1804F 		cmp	r3, #1073741824
 6299 00da 26D0     		beq	.L884
 6300 00dc A2F59432 		sub	r2, r2, #75776
 6301 00e0 9342     		cmp	r3, r2
 6302 00e2 22D0     		beq	.L884
 6303 00e4 02F58062 		add	r2, r2, #1024
 6304 00e8 9342     		cmp	r3, r2
 6305 00ea 1ED0     		beq	.L884
 6306 00ec 02F59C32 		add	r2, r2, #79872
 6307 00f0 9342     		cmp	r3, r2
 6308 00f2 1AD0     		beq	.L884
 6309 00f4 1A68     		ldr	r2, [r3]
 6310 00f6 42F00102 		orr	r2, r2, #1
ARM GAS  /var/folders/t4/6192qx0n3zgdnvcwt906k_mw0000gn/T//cc5P7dKr.s 			page 108


 6311 00fa 1A60     		str	r2, [r3]
 6312 00fc 0020     		movs	r0, #0
 6313 00fe 20E0     		b	.L870
 6314              	.L899:
 6315 0100 0222     		movs	r2, #2
 6316 0102 84F84420 		strb	r2, [r4, #68]
 6317              	.L879:
 6318 0106 2168     		ldr	r1, [r4]
 6319 0108 CA68     		ldr	r2, [r1, #12]
 6320 010a 42F00802 		orr	r2, r2, #8
 6321 010e CA60     		str	r2, [r1, #12]
 6322 0110 D8E7     		b	.L883
 6323              	.L882:
 6324 0112 2168     		ldr	r1, [r4]
 6325 0114 CA68     		ldr	r2, [r1, #12]
 6326 0116 42F00202 		orr	r2, r2, #2
 6327 011a CA60     		str	r2, [r1, #12]
 6328 011c D2E7     		b	.L883
 6329              	.L880:
 6330 011e 2168     		ldr	r1, [r4]
 6331 0120 CA68     		ldr	r2, [r1, #12]
 6332 0122 42F01002 		orr	r2, r2, #16
 6333 0126 CA60     		str	r2, [r1, #12]
 6334 0128 CCE7     		b	.L883
 6335              	.L884:
 6336 012a 9A68     		ldr	r2, [r3, #8]
 6337 012c 02F00702 		and	r2, r2, #7
 6338 0130 062A     		cmp	r2, #6
 6339 0132 09D0     		beq	.L888
 6340 0134 1A68     		ldr	r2, [r3]
 6341 0136 42F00102 		orr	r2, r2, #1
 6342 013a 1A60     		str	r2, [r3]
 6343 013c 0020     		movs	r0, #0
 6344 013e 00E0     		b	.L870
 6345              	.L886:
 6346 0140 0120     		movs	r0, #1
 6347              	.L870:
 6348 0142 10BD     		pop	{r4, pc}
 6349              	.L887:
 6350 0144 1046     		mov	r0, r2
 6351 0146 FCE7     		b	.L870
 6352              	.L888:
 6353 0148 0020     		movs	r0, #0
 6354 014a FAE7     		b	.L870
 6355              	.L901:
 6356              		.align	2
 6357              	.L900:
 6358 014c 002C0140 		.word	1073818624
 6360              		.section	.text.HAL_TIM_IC_Stop_IT,"ax",%progbits
 6361              		.align	1
 6362              		.global	HAL_TIM_IC_Stop_IT
 6363              		.syntax unified
 6364              		.thumb
 6365              		.thumb_func
 6367              	HAL_TIM_IC_Stop_IT:
 6368              		@ args = 0, pretend = 0, frame = 0
 6369              		@ frame_needed = 0, uses_anonymous_args = 0
ARM GAS  /var/folders/t4/6192qx0n3zgdnvcwt906k_mw0000gn/T//cc5P7dKr.s 			page 109


 6370 0000 38B5     		push	{r3, r4, r5, lr}
 6371 0002 0546     		mov	r5, r0
 6372 0004 0C46     		mov	r4, r1
 6373 0006 0C29     		cmp	r1, #12
 6374 0008 5DD8     		bhi	.L917
 6375 000a DFE801F0 		tbb	[pc, r1]
 6376              	.L905:
 6377 000e 07       		.byte	(.L908-.L905)/2
 6378 000f 5C       		.byte	(.L917-.L905)/2
 6379 0010 5C       		.byte	(.L917-.L905)/2
 6380 0011 5C       		.byte	(.L917-.L905)/2
 6381 0012 28       		.byte	(.L907-.L905)/2
 6382 0013 5C       		.byte	(.L917-.L905)/2
 6383 0014 5C       		.byte	(.L917-.L905)/2
 6384 0015 5C       		.byte	(.L917-.L905)/2
 6385 0016 2E       		.byte	(.L906-.L905)/2
 6386 0017 5C       		.byte	(.L917-.L905)/2
 6387 0018 5C       		.byte	(.L917-.L905)/2
 6388 0019 5C       		.byte	(.L917-.L905)/2
 6389 001a 34       		.byte	(.L904-.L905)/2
 6390 001b 00       		.p2align 1
 6391              	.L908:
 6392 001c 0268     		ldr	r2, [r0]
 6393 001e D368     		ldr	r3, [r2, #12]
 6394 0020 23F00203 		bic	r3, r3, #2
 6395 0024 D360     		str	r3, [r2, #12]
 6396              	.L909:
 6397 0026 0022     		movs	r2, #0
 6398 0028 2146     		mov	r1, r4
 6399 002a 2868     		ldr	r0, [r5]
 6400 002c FFF7FEFF 		bl	TIM_CCxChannelCmd
 6401 0030 2B68     		ldr	r3, [r5]
 6402 0032 196A     		ldr	r1, [r3, #32]
 6403 0034 41F21112 		movw	r2, #4369
 6404 0038 1142     		tst	r1, r2
 6405 003a 08D1     		bne	.L910
 6406 003c 196A     		ldr	r1, [r3, #32]
 6407 003e 40F24442 		movw	r2, #1092
 6408 0042 1142     		tst	r1, r2
 6409 0044 03D1     		bne	.L910
 6410 0046 1A68     		ldr	r2, [r3]
 6411 0048 22F00102 		bic	r2, r2, #1
 6412 004c 1A60     		str	r2, [r3]
 6413              	.L910:
 6414 004e C4B9     		cbnz	r4, .L911
 6415 0050 0123     		movs	r3, #1
 6416 0052 85F83E30 		strb	r3, [r5, #62]
 6417 0056 85F84230 		strb	r3, [r5, #66]
 6418 005a 0020     		movs	r0, #0
 6419 005c 34E0     		b	.L903
 6420              	.L907:
 6421 005e 0268     		ldr	r2, [r0]
 6422 0060 D368     		ldr	r3, [r2, #12]
 6423 0062 23F00403 		bic	r3, r3, #4
 6424 0066 D360     		str	r3, [r2, #12]
 6425 0068 DDE7     		b	.L909
 6426              	.L906:
ARM GAS  /var/folders/t4/6192qx0n3zgdnvcwt906k_mw0000gn/T//cc5P7dKr.s 			page 110


 6427 006a 0268     		ldr	r2, [r0]
 6428 006c D368     		ldr	r3, [r2, #12]
 6429 006e 23F00803 		bic	r3, r3, #8
 6430 0072 D360     		str	r3, [r2, #12]
 6431 0074 D7E7     		b	.L909
 6432              	.L904:
 6433 0076 0268     		ldr	r2, [r0]
 6434 0078 D368     		ldr	r3, [r2, #12]
 6435 007a 23F01003 		bic	r3, r3, #16
 6436 007e D360     		str	r3, [r2, #12]
 6437 0080 D1E7     		b	.L909
 6438              	.L911:
 6439 0082 042C     		cmp	r4, #4
 6440 0084 0DD0     		beq	.L919
 6441 0086 082C     		cmp	r4, #8
 6442 0088 0FD0     		beq	.L920
 6443 008a 0123     		movs	r3, #1
 6444 008c 85F84130 		strb	r3, [r5, #65]
 6445              	.L913:
 6446 0090 042C     		cmp	r4, #4
 6447 0092 0ED0     		beq	.L921
 6448 0094 082C     		cmp	r4, #8
 6449 0096 11D0     		beq	.L922
 6450 0098 0123     		movs	r3, #1
 6451 009a 85F84530 		strb	r3, [r5, #69]
 6452 009e 0020     		movs	r0, #0
 6453 00a0 12E0     		b	.L903
 6454              	.L919:
 6455 00a2 0123     		movs	r3, #1
 6456 00a4 85F83F30 		strb	r3, [r5, #63]
 6457 00a8 F2E7     		b	.L913
 6458              	.L920:
 6459 00aa 0123     		movs	r3, #1
 6460 00ac 85F84030 		strb	r3, [r5, #64]
 6461 00b0 EEE7     		b	.L913
 6462              	.L921:
 6463 00b2 0123     		movs	r3, #1
 6464 00b4 85F84330 		strb	r3, [r5, #67]
 6465 00b8 0020     		movs	r0, #0
 6466 00ba 05E0     		b	.L903
 6467              	.L922:
 6468 00bc 0123     		movs	r3, #1
 6469 00be 85F84430 		strb	r3, [r5, #68]
 6470 00c2 0020     		movs	r0, #0
 6471 00c4 00E0     		b	.L903
 6472              	.L917:
 6473 00c6 0120     		movs	r0, #1
 6474              	.L903:
 6475 00c8 38BD     		pop	{r3, r4, r5, pc}
 6477              		.section	.text.HAL_TIM_IC_Start_DMA,"ax",%progbits
 6478              		.align	1
 6479              		.global	HAL_TIM_IC_Start_DMA
 6480              		.syntax unified
 6481              		.thumb
 6482              		.thumb_func
 6484              	HAL_TIM_IC_Start_DMA:
 6485              		@ args = 0, pretend = 0, frame = 0
ARM GAS  /var/folders/t4/6192qx0n3zgdnvcwt906k_mw0000gn/T//cc5P7dKr.s 			page 111


 6486              		@ frame_needed = 0, uses_anonymous_args = 0
 6487 0000 2DE9F041 		push	{r4, r5, r6, r7, r8, lr}
 6488 0004 0446     		mov	r4, r0
 6489 0006 1646     		mov	r6, r2
 6490 0008 1F46     		mov	r7, r3
 6491 000a 0D46     		mov	r5, r1
 6492 000c 99BB     		cbnz	r1, .L924
 6493 000e 90F83E10 		ldrb	r1, [r0, #62]	@ zero_extendqisi2
 6494 0012 C8B2     		uxtb	r0, r1
 6495              	.L925:
 6496 0014 002D     		cmp	r5, #0
 6497 0016 3ED1     		bne	.L928
 6498 0018 94F84280 		ldrb	r8, [r4, #66]	@ zero_extendqisi2
 6499 001c 5FFA88F8 		uxtb	r8, r8
 6500              	.L929:
 6501 0020 0228     		cmp	r0, #2
 6502 0022 00F0F380 		beq	.L932
 6503 0026 B8F1020F 		cmp	r8, #2
 6504 002a 00F0EC80 		beq	.L948
 6505 002e 0128     		cmp	r0, #1
 6506 0030 40F0EB80 		bne	.L949
 6507 0034 B8F1010F 		cmp	r8, #1
 6508 0038 40F0E880 		bne	.L932
 6509 003c 002E     		cmp	r6, #0
 6510 003e 00F0E780 		beq	.L950
 6511 0042 002F     		cmp	r7, #0
 6512 0044 00F0E680 		beq	.L951
 6513 0048 002D     		cmp	r5, #0
 6514 004a 37D1     		bne	.L933
 6515 004c 0223     		movs	r3, #2
 6516 004e 84F83E30 		strb	r3, [r4, #62]
 6517 0052 84F84230 		strb	r3, [r4, #66]
 6518              	.L934:
 6519 0056 0122     		movs	r2, #1
 6520 0058 2946     		mov	r1, r5
 6521 005a 2068     		ldr	r0, [r4]
 6522 005c FFF7FEFF 		bl	TIM_CCxChannelCmd
 6523 0060 0C2D     		cmp	r5, #12
 6524 0062 62D8     		bhi	.L940
 6525 0064 DFE805F0 		tbb	[pc, r5]
 6526              	.L942:
 6527 0068 49       		.byte	(.L945-.L942)/2
 6528 0069 61       		.byte	(.L940-.L942)/2
 6529 006a 61       		.byte	(.L940-.L942)/2
 6530 006b 61       		.byte	(.L940-.L942)/2
 6531 006c 7A       		.byte	(.L944-.L942)/2
 6532 006d 61       		.byte	(.L940-.L942)/2
 6533 006e 61       		.byte	(.L940-.L942)/2
 6534 006f 61       		.byte	(.L940-.L942)/2
 6535 0070 93       		.byte	(.L943-.L942)/2
 6536 0071 61       		.byte	(.L940-.L942)/2
 6537 0072 61       		.byte	(.L940-.L942)/2
 6538 0073 61       		.byte	(.L940-.L942)/2
 6539 0074 AC       		.byte	(.L941-.L942)/2
 6540 0075 00       		.p2align 1
 6541              	.L924:
 6542 0076 0429     		cmp	r1, #4
ARM GAS  /var/folders/t4/6192qx0n3zgdnvcwt906k_mw0000gn/T//cc5P7dKr.s 			page 112


 6543 0078 05D0     		beq	.L959
 6544 007a 0829     		cmp	r1, #8
 6545 007c 07D0     		beq	.L960
 6546 007e 90F84110 		ldrb	r1, [r0, #65]	@ zero_extendqisi2
 6547 0082 C8B2     		uxtb	r0, r1
 6548 0084 C6E7     		b	.L925
 6549              	.L959:
 6550 0086 90F83F10 		ldrb	r1, [r0, #63]	@ zero_extendqisi2
 6551 008a C8B2     		uxtb	r0, r1
 6552 008c C2E7     		b	.L925
 6553              	.L960:
 6554 008e 90F84000 		ldrb	r0, [r0, #64]	@ zero_extendqisi2
 6555 0092 C0B2     		uxtb	r0, r0
 6556 0094 BEE7     		b	.L925
 6557              	.L928:
 6558 0096 042D     		cmp	r5, #4
 6559 0098 06D0     		beq	.L961
 6560 009a 082D     		cmp	r5, #8
 6561 009c 09D0     		beq	.L962
 6562 009e 94F84580 		ldrb	r8, [r4, #69]	@ zero_extendqisi2
 6563 00a2 5FFA88F8 		uxtb	r8, r8
 6564 00a6 BBE7     		b	.L929
 6565              	.L961:
 6566 00a8 94F84380 		ldrb	r8, [r4, #67]	@ zero_extendqisi2
 6567 00ac 5FFA88F8 		uxtb	r8, r8
 6568 00b0 B6E7     		b	.L929
 6569              	.L962:
 6570 00b2 94F84480 		ldrb	r8, [r4, #68]	@ zero_extendqisi2
 6571 00b6 5FFA88F8 		uxtb	r8, r8
 6572 00ba B1E7     		b	.L929
 6573              	.L933:
 6574 00bc 042D     		cmp	r5, #4
 6575 00be 0CD0     		beq	.L963
 6576 00c0 082D     		cmp	r5, #8
 6577 00c2 0ED0     		beq	.L964
 6578 00c4 0223     		movs	r3, #2
 6579 00c6 84F84130 		strb	r3, [r4, #65]
 6580              	.L936:
 6581 00ca 042D     		cmp	r5, #4
 6582 00cc 0DD0     		beq	.L965
 6583 00ce 082D     		cmp	r5, #8
 6584 00d0 0FD0     		beq	.L966
 6585 00d2 0223     		movs	r3, #2
 6586 00d4 84F84530 		strb	r3, [r4, #69]
 6587 00d8 BDE7     		b	.L934
 6588              	.L963:
 6589 00da 0223     		movs	r3, #2
 6590 00dc 84F83F30 		strb	r3, [r4, #63]
 6591 00e0 F3E7     		b	.L936
 6592              	.L964:
 6593 00e2 0223     		movs	r3, #2
 6594 00e4 84F84030 		strb	r3, [r4, #64]
 6595 00e8 EFE7     		b	.L936
 6596              	.L965:
 6597 00ea 0223     		movs	r3, #2
 6598 00ec 84F84330 		strb	r3, [r4, #67]
 6599 00f0 B1E7     		b	.L934
ARM GAS  /var/folders/t4/6192qx0n3zgdnvcwt906k_mw0000gn/T//cc5P7dKr.s 			page 113


 6600              	.L966:
 6601 00f2 0223     		movs	r3, #2
 6602 00f4 84F84430 		strb	r3, [r4, #68]
 6603 00f8 ADE7     		b	.L934
 6604              	.L945:
 6605 00fa 636A     		ldr	r3, [r4, #36]
 6606 00fc 4B4A     		ldr	r2, .L967
 6607 00fe 9A62     		str	r2, [r3, #40]
 6608 0100 636A     		ldr	r3, [r4, #36]
 6609 0102 4B4A     		ldr	r2, .L967+4
 6610 0104 DA62     		str	r2, [r3, #44]
 6611 0106 636A     		ldr	r3, [r4, #36]
 6612 0108 4A4A     		ldr	r2, .L967+8
 6613 010a 1A63     		str	r2, [r3, #48]
 6614 010c 2168     		ldr	r1, [r4]
 6615 010e 3B46     		mov	r3, r7
 6616 0110 3246     		mov	r2, r6
 6617 0112 3431     		adds	r1, r1, #52
 6618 0114 606A     		ldr	r0, [r4, #36]
 6619 0116 FFF7FEFF 		bl	HAL_DMA_Start_IT
 6620 011a 0028     		cmp	r0, #0
 6621 011c 7CD1     		bne	.L952
 6622 011e 2268     		ldr	r2, [r4]
 6623 0120 D368     		ldr	r3, [r2, #12]
 6624 0122 43F40073 		orr	r3, r3, #512
 6625 0126 D360     		str	r3, [r2, #12]
 6626 0128 8046     		mov	r8, r0
 6627              	.L940:
 6628 012a 2368     		ldr	r3, [r4]
 6629 012c 424A     		ldr	r2, .L967+12
 6630 012e 9342     		cmp	r3, r2
 6631 0130 5ED0     		beq	.L946
 6632 0132 B3F1804F 		cmp	r3, #1073741824
 6633 0136 5BD0     		beq	.L946
 6634 0138 A2F59432 		sub	r2, r2, #75776
 6635 013c 9342     		cmp	r3, r2
 6636 013e 57D0     		beq	.L946
 6637 0140 02F58062 		add	r2, r2, #1024
 6638 0144 9342     		cmp	r3, r2
 6639 0146 53D0     		beq	.L946
 6640 0148 02F59C32 		add	r2, r2, #79872
 6641 014c 9342     		cmp	r3, r2
 6642 014e 4FD0     		beq	.L946
 6643 0150 1A68     		ldr	r2, [r3]
 6644 0152 42F00102 		orr	r2, r2, #1
 6645 0156 1A60     		str	r2, [r3]
 6646 0158 4046     		mov	r0, r8
 6647 015a 57E0     		b	.L932
 6648              	.L944:
 6649 015c A36A     		ldr	r3, [r4, #40]
 6650 015e 334A     		ldr	r2, .L967
 6651 0160 9A62     		str	r2, [r3, #40]
 6652 0162 A36A     		ldr	r3, [r4, #40]
 6653 0164 324A     		ldr	r2, .L967+4
 6654 0166 DA62     		str	r2, [r3, #44]
 6655 0168 A36A     		ldr	r3, [r4, #40]
 6656 016a 324A     		ldr	r2, .L967+8
ARM GAS  /var/folders/t4/6192qx0n3zgdnvcwt906k_mw0000gn/T//cc5P7dKr.s 			page 114


 6657 016c 1A63     		str	r2, [r3, #48]
 6658 016e 2168     		ldr	r1, [r4]
 6659 0170 3B46     		mov	r3, r7
 6660 0172 3246     		mov	r2, r6
